
elf/kernel:     file format elf64-littleriscv


Disassembly of section .text:

0000000080000000 <_entry>:
    80000000:	001fe117          	auipc	x2,0x1fe
    80000004:	9d010113          	addi	x2,x2,-1584 # 801fd9d0 <stack0>
    80000008:	00001537          	lui	x10,0x1
    8000000c:	f14025f3          	csrrs	x11,mhartid,x0
    80000010:	00158593          	addi	x11,x11,1
    80000014:	02b50533          	mul	x10,x10,x11
    80000018:	00a10133          	add	x2,x2,x10
    8000001c:	068000ef          	jal	x1,80000084 <start>

0000000080000020 <spin>:
    80000020:	0000006f          	jal	x0,80000020 <spin>

0000000080000024 <timerinit>:
    80000024:	ff010113          	addi	x2,x2,-16
    80000028:	00113423          	sd	x1,8(x2)
    8000002c:	00813023          	sd	x8,0(x2)
    80000030:	01010413          	addi	x8,x2,16
    80000034:	304027f3          	csrrs	x15,mie,x0
    80000038:	0207e793          	ori	x15,x15,32
    8000003c:	30479073          	csrrw	x0,mie,x15
    80000040:	30a027f3          	csrrs	x15,0x30a,x0
    80000044:	fff00713          	addi	x14,x0,-1
    80000048:	03f71713          	slli	x14,x14,0x3f
    8000004c:	00e7e7b3          	or	x15,x15,x14
    80000050:	30a79073          	csrrw	x0,0x30a,x15
    80000054:	306027f3          	csrrs	x15,mcounteren,x0
    80000058:	0027e793          	ori	x15,x15,2
    8000005c:	30679073          	csrrw	x0,mcounteren,x15
    80000060:	c01027f3          	csrrs	x15,time,x0
    80000064:	000f4737          	lui	x14,0xf4
    80000068:	24070713          	addi	x14,x14,576 # f4240 <_binary_fs_img_size-0xffdc0>
    8000006c:	00e787b3          	add	x15,x15,x14
    80000070:	14d79073          	csrrw	x0,stimecmp,x15
    80000074:	00813083          	ld	x1,8(x2)
    80000078:	00013403          	ld	x8,0(x2)
    8000007c:	01010113          	addi	x2,x2,16
    80000080:	00008067          	jalr	x0,0(x1)

0000000080000084 <start>:
    80000084:	ff010113          	addi	x2,x2,-16
    80000088:	00113423          	sd	x1,8(x2)
    8000008c:	00813023          	sd	x8,0(x2)
    80000090:	01010413          	addi	x8,x2,16
    80000094:	300027f3          	csrrs	x15,mstatus,x0
    80000098:	ffffe737          	lui	x14,0xffffe
    8000009c:	7ff70713          	addi	x14,x14,2047 # ffffffffffffe7ff <end+0xffffffff7fbf3c4f>
    800000a0:	00e7f7b3          	and	x15,x15,x14
    800000a4:	00001737          	lui	x14,0x1
    800000a8:	80070713          	addi	x14,x14,-2048 # 800 <_binary_fs_img_size-0x1f3800>
    800000ac:	00e7e7b3          	or	x15,x15,x14
    800000b0:	30079073          	csrrw	x0,mstatus,x15
    800000b4:	00001797          	auipc	x15,0x1
    800000b8:	42c78793          	addi	x15,x15,1068 # 800014e0 <main>
    800000bc:	34179073          	csrrw	x0,mepc,x15
    800000c0:	00000793          	addi	x15,x0,0
    800000c4:	18079073          	csrrw	x0,satp,x15
    800000c8:	000107b7          	lui	x15,0x10
    800000cc:	fff78793          	addi	x15,x15,-1 # ffff <_binary_fs_img_size-0x1e4001>
    800000d0:	30279073          	csrrw	x0,medeleg,x15
    800000d4:	30379073          	csrrw	x0,mideleg,x15
    800000d8:	104027f3          	csrrs	x15,sie,x0
    800000dc:	2207e793          	ori	x15,x15,544
    800000e0:	10479073          	csrrw	x0,sie,x15
    800000e4:	fff00793          	addi	x15,x0,-1
    800000e8:	00a7d793          	srli	x15,x15,0xa
    800000ec:	3b079073          	csrrw	x0,pmpaddr0,x15
    800000f0:	00f00793          	addi	x15,x0,15
    800000f4:	3a079073          	csrrw	x0,pmpcfg0,x15
    800000f8:	f2dff0ef          	jal	x1,80000024 <timerinit>
    800000fc:	f14027f3          	csrrs	x15,mhartid,x0
    80000100:	0007879b          	addiw	x15,x15,0
    80000104:	00078213          	addi	x4,x15,0
    80000108:	30200073          	mret
    8000010c:	00813083          	ld	x1,8(x2)
    80000110:	00013403          	ld	x8,0(x2)
    80000114:	01010113          	addi	x2,x2,16
    80000118:	00008067          	jalr	x0,0(x1)

000000008000011c <consolewrite>:
    8000011c:	f8010113          	addi	x2,x2,-128
    80000120:	06113c23          	sd	x1,120(x2)
    80000124:	06813823          	sd	x8,112(x2)
    80000128:	06913423          	sd	x9,104(x2)
    8000012c:	08010413          	addi	x8,x2,128
    80000130:	0ac05c63          	bge	x0,x12,800001e8 <consolewrite+0xcc>
    80000134:	07213023          	sd	x18,96(x2)
    80000138:	05313c23          	sd	x19,88(x2)
    8000013c:	05413823          	sd	x20,80(x2)
    80000140:	05513423          	sd	x21,72(x2)
    80000144:	05613023          	sd	x22,64(x2)
    80000148:	03713c23          	sd	x23,56(x2)
    8000014c:	03813823          	sd	x24,48(x2)
    80000150:	03913423          	sd	x25,40(x2)
    80000154:	03a13023          	sd	x26,32(x2)
    80000158:	00050b13          	addi	x22,x10,0 # 1000 <_binary_fs_img_size-0x1f3000>
    8000015c:	00058b93          	addi	x23,x11,0
    80000160:	00060a13          	addi	x20,x12,0
    80000164:	00000493          	addi	x9,x0,0
    80000168:	02000c93          	addi	x25,x0,32
    8000016c:	02000d13          	addi	x26,x0,32
    80000170:	f8040a93          	addi	x21,x8,-128
    80000174:	fff00c13          	addi	x24,x0,-1
    80000178:	0340006f          	jal	x0,800001ac <consolewrite+0x90>
    8000017c:	0009099b          	addiw	x19,x18,0
    80000180:	00098693          	addi	x13,x19,0
    80000184:	01748633          	add	x12,x9,x23
    80000188:	000b0593          	addi	x11,x22,0
    8000018c:	000a8513          	addi	x10,x21,0
    80000190:	2d0030ef          	jal	x1,80003460 <either_copyin>
    80000194:	05850e63          	beq	x10,x24,800001f0 <consolewrite+0xd4>
    80000198:	00098593          	addi	x11,x19,0
    8000019c:	000a8513          	addi	x10,x21,0
    800001a0:	2c1000ef          	jal	x1,80000c60 <uartwrite>
    800001a4:	009904bb          	addw	x9,x18,x9
    800001a8:	0144dc63          	bge	x9,x20,800001c0 <consolewrite+0xa4>
    800001ac:	409a07bb          	subw	x15,x20,x9
    800001b0:	00078913          	addi	x18,x15,0
    800001b4:	fcfcd4e3          	bge	x25,x15,8000017c <consolewrite+0x60>
    800001b8:	000d0913          	addi	x18,x26,0
    800001bc:	fc1ff06f          	jal	x0,8000017c <consolewrite+0x60>
    800001c0:	06013903          	ld	x18,96(x2)
    800001c4:	05813983          	ld	x19,88(x2)
    800001c8:	05013a03          	ld	x20,80(x2)
    800001cc:	04813a83          	ld	x21,72(x2)
    800001d0:	04013b03          	ld	x22,64(x2)
    800001d4:	03813b83          	ld	x23,56(x2)
    800001d8:	03013c03          	ld	x24,48(x2)
    800001dc:	02813c83          	ld	x25,40(x2)
    800001e0:	02013d03          	ld	x26,32(x2)
    800001e4:	0300006f          	jal	x0,80000214 <consolewrite+0xf8>
    800001e8:	00000493          	addi	x9,x0,0
    800001ec:	0280006f          	jal	x0,80000214 <consolewrite+0xf8>
    800001f0:	06013903          	ld	x18,96(x2)
    800001f4:	05813983          	ld	x19,88(x2)
    800001f8:	05013a03          	ld	x20,80(x2)
    800001fc:	04813a83          	ld	x21,72(x2)
    80000200:	04013b03          	ld	x22,64(x2)
    80000204:	03813b83          	ld	x23,56(x2)
    80000208:	03013c03          	ld	x24,48(x2)
    8000020c:	02813c83          	ld	x25,40(x2)
    80000210:	02013d03          	ld	x26,32(x2)
    80000214:	00048513          	addi	x10,x9,0
    80000218:	07813083          	ld	x1,120(x2)
    8000021c:	07013403          	ld	x8,112(x2)
    80000220:	06813483          	ld	x9,104(x2)
    80000224:	08010113          	addi	x2,x2,128
    80000228:	00008067          	jalr	x0,0(x1)

000000008000022c <consoleread>:
    8000022c:	fa010113          	addi	x2,x2,-96
    80000230:	04113c23          	sd	x1,88(x2)
    80000234:	04813823          	sd	x8,80(x2)
    80000238:	04913423          	sd	x9,72(x2)
    8000023c:	05213023          	sd	x18,64(x2)
    80000240:	03313c23          	sd	x19,56(x2)
    80000244:	03413823          	sd	x20,48(x2)
    80000248:	03613023          	sd	x22,32(x2)
    8000024c:	01713c23          	sd	x23,24(x2)
    80000250:	06010413          	addi	x8,x2,96
    80000254:	00050b13          	addi	x22,x10,0
    80000258:	00058a13          	addi	x20,x11,0
    8000025c:	00060993          	addi	x19,x12,0
    80000260:	00060b93          	addi	x23,x12,0
    80000264:	00205517          	auipc	x10,0x205
    80000268:	76c50513          	addi	x10,x10,1900 # 802059d0 <cons>
    8000026c:	625000ef          	jal	x1,80001090 <acquire>
    80000270:	00205497          	auipc	x9,0x205
    80000274:	76048493          	addi	x9,x9,1888 # 802059d0 <cons>
    80000278:	00205917          	auipc	x18,0x205
    8000027c:	7f090913          	addi	x18,x18,2032 # 80205a68 <cons+0x98>
    80000280:	0f305c63          	bge	x0,x19,80000378 <consoleread+0x14c>
    80000284:	0984a783          	lw	x15,152(x9)
    80000288:	09c4a703          	lw	x14,156(x9)
    8000028c:	0cf71c63          	bne	x14,x15,80000364 <consoleread+0x138>
    80000290:	390020ef          	jal	x1,80002620 <myproc>
    80000294:	7a5020ef          	jal	x1,80003238 <killed>
    80000298:	08051063          	bne	x10,x0,80000318 <consoleread+0xec>
    8000029c:	00048593          	addi	x11,x9,0
    800002a0:	00090513          	addi	x10,x18,0
    800002a4:	455020ef          	jal	x1,80002ef8 <sleep>
    800002a8:	0984a783          	lw	x15,152(x9)
    800002ac:	09c4a703          	lw	x14,156(x9)
    800002b0:	fef700e3          	beq	x14,x15,80000290 <consoleread+0x64>
    800002b4:	03513423          	sd	x21,40(x2)
    800002b8:	00205717          	auipc	x14,0x205
    800002bc:	71870713          	addi	x14,x14,1816 # 802059d0 <cons>
    800002c0:	0017869b          	addiw	x13,x15,1
    800002c4:	08d72c23          	sw	x13,152(x14)
    800002c8:	07f7f693          	andi	x13,x15,127
    800002cc:	00d70733          	add	x14,x14,x13
    800002d0:	01874703          	lbu	x14,24(x14)
    800002d4:	00070a9b          	addiw	x21,x14,0
    800002d8:	00400693          	addi	x13,x0,4
    800002dc:	06da8a63          	beq	x21,x13,80000350 <consoleread+0x124>
    800002e0:	fae407a3          	sb	x14,-81(x8)
    800002e4:	00100693          	addi	x13,x0,1
    800002e8:	faf40613          	addi	x12,x8,-81
    800002ec:	000a0593          	addi	x11,x20,0
    800002f0:	000b0513          	addi	x10,x22,0
    800002f4:	0e8030ef          	jal	x1,800033dc <either_copyout>
    800002f8:	fff00793          	addi	x15,x0,-1
    800002fc:	06f50c63          	beq	x10,x15,80000374 <consoleread+0x148>
    80000300:	001a0a13          	addi	x20,x20,1
    80000304:	fff9899b          	addiw	x19,x19,-1
    80000308:	00a00793          	addi	x15,x0,10
    8000030c:	08fa8063          	beq	x21,x15,8000038c <consoleread+0x160>
    80000310:	02813a83          	ld	x21,40(x2)
    80000314:	f6dff06f          	jal	x0,80000280 <consoleread+0x54>
    80000318:	00205517          	auipc	x10,0x205
    8000031c:	6b850513          	addi	x10,x10,1720 # 802059d0 <cons>
    80000320:	649000ef          	jal	x1,80001168 <release>
    80000324:	fff00513          	addi	x10,x0,-1
    80000328:	05813083          	ld	x1,88(x2)
    8000032c:	05013403          	ld	x8,80(x2)
    80000330:	04813483          	ld	x9,72(x2)
    80000334:	04013903          	ld	x18,64(x2)
    80000338:	03813983          	ld	x19,56(x2)
    8000033c:	03013a03          	ld	x20,48(x2)
    80000340:	02013b03          	ld	x22,32(x2)
    80000344:	01813b83          	ld	x23,24(x2)
    80000348:	06010113          	addi	x2,x2,96
    8000034c:	00008067          	jalr	x0,0(x1)
    80000350:	0179fe63          	bgeu	x19,x23,8000036c <consoleread+0x140>
    80000354:	00205717          	auipc	x14,0x205
    80000358:	70f72a23          	sw	x15,1812(x14) # 80205a68 <cons+0x98>
    8000035c:	02813a83          	ld	x21,40(x2)
    80000360:	0180006f          	jal	x0,80000378 <consoleread+0x14c>
    80000364:	03513423          	sd	x21,40(x2)
    80000368:	f51ff06f          	jal	x0,800002b8 <consoleread+0x8c>
    8000036c:	02813a83          	ld	x21,40(x2)
    80000370:	0080006f          	jal	x0,80000378 <consoleread+0x14c>
    80000374:	02813a83          	ld	x21,40(x2)
    80000378:	00205517          	auipc	x10,0x205
    8000037c:	65850513          	addi	x10,x10,1624 # 802059d0 <cons>
    80000380:	5e9000ef          	jal	x1,80001168 <release>
    80000384:	413b853b          	subw	x10,x23,x19
    80000388:	fa1ff06f          	jal	x0,80000328 <consoleread+0xfc>
    8000038c:	02813a83          	ld	x21,40(x2)
    80000390:	fe9ff06f          	jal	x0,80000378 <consoleread+0x14c>

0000000080000394 <consputc>:
    80000394:	ff010113          	addi	x2,x2,-16
    80000398:	00113423          	sd	x1,8(x2)
    8000039c:	00813023          	sd	x8,0(x2)
    800003a0:	01010413          	addi	x8,x2,16
    800003a4:	10000793          	addi	x15,x0,256
    800003a8:	00f50c63          	beq	x10,x15,800003c0 <consputc+0x2c>
    800003ac:	031000ef          	jal	x1,80000bdc <uartputc_sync>
    800003b0:	00813083          	ld	x1,8(x2)
    800003b4:	00013403          	ld	x8,0(x2)
    800003b8:	01010113          	addi	x2,x2,16
    800003bc:	00008067          	jalr	x0,0(x1)
    800003c0:	00800513          	addi	x10,x0,8
    800003c4:	019000ef          	jal	x1,80000bdc <uartputc_sync>
    800003c8:	02000513          	addi	x10,x0,32
    800003cc:	011000ef          	jal	x1,80000bdc <uartputc_sync>
    800003d0:	00800513          	addi	x10,x0,8
    800003d4:	009000ef          	jal	x1,80000bdc <uartputc_sync>
    800003d8:	fd9ff06f          	jal	x0,800003b0 <consputc+0x1c>

00000000800003dc <consoleintr>:
    800003dc:	fe010113          	addi	x2,x2,-32
    800003e0:	00113c23          	sd	x1,24(x2)
    800003e4:	00813823          	sd	x8,16(x2)
    800003e8:	00913423          	sd	x9,8(x2)
    800003ec:	02010413          	addi	x8,x2,32
    800003f0:	00050493          	addi	x9,x10,0
    800003f4:	00205517          	auipc	x10,0x205
    800003f8:	5dc50513          	addi	x10,x10,1500 # 802059d0 <cons>
    800003fc:	495000ef          	jal	x1,80001090 <acquire>
    80000400:	01500793          	addi	x15,x0,21
    80000404:	0af48e63          	beq	x9,x15,800004c0 <consoleintr+0xe4>
    80000408:	0297cc63          	blt	x15,x9,80000440 <consoleintr+0x64>
    8000040c:	00800793          	addi	x15,x0,8
    80000410:	10f48c63          	beq	x9,x15,80000528 <consoleintr+0x14c>
    80000414:	01000793          	addi	x15,x0,16
    80000418:	12f49e63          	bne	x9,x15,80000554 <consoleintr+0x178>
    8000041c:	0c8030ef          	jal	x1,800034e4 <procdump>
    80000420:	00205517          	auipc	x10,0x205
    80000424:	5b050513          	addi	x10,x10,1456 # 802059d0 <cons>
    80000428:	541000ef          	jal	x1,80001168 <release>
    8000042c:	01813083          	ld	x1,24(x2)
    80000430:	01013403          	ld	x8,16(x2)
    80000434:	00813483          	ld	x9,8(x2)
    80000438:	02010113          	addi	x2,x2,32
    8000043c:	00008067          	jalr	x0,0(x1)
    80000440:	07f00793          	addi	x15,x0,127
    80000444:	0ef48263          	beq	x9,x15,80000528 <consoleintr+0x14c>
    80000448:	00205717          	auipc	x14,0x205
    8000044c:	58870713          	addi	x14,x14,1416 # 802059d0 <cons>
    80000450:	0a072783          	lw	x15,160(x14)
    80000454:	09872703          	lw	x14,152(x14)
    80000458:	40e787bb          	subw	x15,x15,x14
    8000045c:	07f00713          	addi	x14,x0,127
    80000460:	fcf760e3          	bltu	x14,x15,80000420 <consoleintr+0x44>
    80000464:	00d00793          	addi	x15,x0,13
    80000468:	0ef48a63          	beq	x9,x15,8000055c <consoleintr+0x180>
    8000046c:	00048513          	addi	x10,x9,0
    80000470:	f25ff0ef          	jal	x1,80000394 <consputc>
    80000474:	00205717          	auipc	x14,0x205
    80000478:	55c70713          	addi	x14,x14,1372 # 802059d0 <cons>
    8000047c:	0a072683          	lw	x13,160(x14)
    80000480:	0016879b          	addiw	x15,x13,1
    80000484:	00078613          	addi	x12,x15,0
    80000488:	0af72023          	sw	x15,160(x14)
    8000048c:	07f6f693          	andi	x13,x13,127
    80000490:	00d70733          	add	x14,x14,x13
    80000494:	00970c23          	sb	x9,24(x14)
    80000498:	ff648713          	addi	x14,x9,-10
    8000049c:	0e070863          	beq	x14,x0,8000058c <consoleintr+0x1b0>
    800004a0:	ffc48493          	addi	x9,x9,-4
    800004a4:	0e048463          	beq	x9,x0,8000058c <consoleintr+0x1b0>
    800004a8:	00205717          	auipc	x14,0x205
    800004ac:	5c072703          	lw	x14,1472(x14) # 80205a68 <cons+0x98>
    800004b0:	40e787bb          	subw	x15,x15,x14
    800004b4:	08000713          	addi	x14,x0,128
    800004b8:	f6e794e3          	bne	x15,x14,80000420 <consoleintr+0x44>
    800004bc:	0d00006f          	jal	x0,8000058c <consoleintr+0x1b0>
    800004c0:	01213023          	sd	x18,0(x2)
    800004c4:	00205717          	auipc	x14,0x205
    800004c8:	50c70713          	addi	x14,x14,1292 # 802059d0 <cons>
    800004cc:	0a072783          	lw	x15,160(x14)
    800004d0:	09c72703          	lw	x14,156(x14)
    800004d4:	00205497          	auipc	x9,0x205
    800004d8:	4fc48493          	addi	x9,x9,1276 # 802059d0 <cons>
    800004dc:	00a00913          	addi	x18,x0,10
    800004e0:	02f70c63          	beq	x14,x15,80000518 <consoleintr+0x13c>
    800004e4:	fff7879b          	addiw	x15,x15,-1
    800004e8:	07f7f713          	andi	x14,x15,127
    800004ec:	00e48733          	add	x14,x9,x14
    800004f0:	01874703          	lbu	x14,24(x14)
    800004f4:	03270663          	beq	x14,x18,80000520 <consoleintr+0x144>
    800004f8:	0af4a023          	sw	x15,160(x9)
    800004fc:	10000513          	addi	x10,x0,256
    80000500:	e95ff0ef          	jal	x1,80000394 <consputc>
    80000504:	0a04a783          	lw	x15,160(x9)
    80000508:	09c4a703          	lw	x14,156(x9)
    8000050c:	fcf71ce3          	bne	x14,x15,800004e4 <consoleintr+0x108>
    80000510:	00013903          	ld	x18,0(x2)
    80000514:	f0dff06f          	jal	x0,80000420 <consoleintr+0x44>
    80000518:	00013903          	ld	x18,0(x2)
    8000051c:	f05ff06f          	jal	x0,80000420 <consoleintr+0x44>
    80000520:	00013903          	ld	x18,0(x2)
    80000524:	efdff06f          	jal	x0,80000420 <consoleintr+0x44>
    80000528:	00205717          	auipc	x14,0x205
    8000052c:	4a870713          	addi	x14,x14,1192 # 802059d0 <cons>
    80000530:	0a072783          	lw	x15,160(x14)
    80000534:	09c72703          	lw	x14,156(x14)
    80000538:	eef704e3          	beq	x14,x15,80000420 <consoleintr+0x44>
    8000053c:	fff7879b          	addiw	x15,x15,-1
    80000540:	00205717          	auipc	x14,0x205
    80000544:	52f72823          	sw	x15,1328(x14) # 80205a70 <cons+0xa0>
    80000548:	10000513          	addi	x10,x0,256
    8000054c:	e49ff0ef          	jal	x1,80000394 <consputc>
    80000550:	ed1ff06f          	jal	x0,80000420 <consoleintr+0x44>
    80000554:	ec0486e3          	beq	x9,x0,80000420 <consoleintr+0x44>
    80000558:	ef1ff06f          	jal	x0,80000448 <consoleintr+0x6c>
    8000055c:	00a00513          	addi	x10,x0,10
    80000560:	e35ff0ef          	jal	x1,80000394 <consputc>
    80000564:	00205797          	auipc	x15,0x205
    80000568:	46c78793          	addi	x15,x15,1132 # 802059d0 <cons>
    8000056c:	0a07a703          	lw	x14,160(x15)
    80000570:	0017069b          	addiw	x13,x14,1
    80000574:	00068613          	addi	x12,x13,0
    80000578:	0ad7a023          	sw	x13,160(x15)
    8000057c:	07f77713          	andi	x14,x14,127
    80000580:	00e787b3          	add	x15,x15,x14
    80000584:	00a00713          	addi	x14,x0,10
    80000588:	00e78c23          	sb	x14,24(x15)
    8000058c:	00205797          	auipc	x15,0x205
    80000590:	4ec7a023          	sw	x12,1248(x15) # 80205a6c <cons+0x9c>
    80000594:	00205517          	auipc	x10,0x205
    80000598:	4d450513          	addi	x10,x10,1236 # 80205a68 <cons+0x98>
    8000059c:	1d5020ef          	jal	x1,80002f70 <wakeup>
    800005a0:	e81ff06f          	jal	x0,80000420 <consoleintr+0x44>

00000000800005a4 <consoleinit>:
    800005a4:	ff010113          	addi	x2,x2,-16
    800005a8:	00113423          	sd	x1,8(x2)
    800005ac:	00813023          	sd	x8,0(x2)
    800005b0:	01010413          	addi	x8,x2,16
    800005b4:	00009597          	auipc	x11,0x9
    800005b8:	a4c58593          	addi	x11,x11,-1460 # 80009000 <etext>
    800005bc:	00205517          	auipc	x10,0x205
    800005c0:	41450513          	addi	x10,x10,1044 # 802059d0 <cons>
    800005c4:	1e9000ef          	jal	x1,80000fac <initlock>
    800005c8:	5a8000ef          	jal	x1,80000b70 <uartinit>
    800005cc:	00215797          	auipc	x15,0x215
    800005d0:	57478793          	addi	x15,x15,1396 # 80215b40 <devsw>
    800005d4:	00000717          	auipc	x14,0x0
    800005d8:	c5870713          	addi	x14,x14,-936 # 8000022c <consoleread>
    800005dc:	00e7b823          	sd	x14,16(x15)
    800005e0:	00000717          	auipc	x14,0x0
    800005e4:	b3c70713          	addi	x14,x14,-1220 # 8000011c <consolewrite>
    800005e8:	00e7bc23          	sd	x14,24(x15)
    800005ec:	00813083          	ld	x1,8(x2)
    800005f0:	00013403          	ld	x8,0(x2)
    800005f4:	01010113          	addi	x2,x2,16
    800005f8:	00008067          	jalr	x0,0(x1)

00000000800005fc <printint>:
    800005fc:	fc010113          	addi	x2,x2,-64
    80000600:	02113c23          	sd	x1,56(x2)
    80000604:	02813823          	sd	x8,48(x2)
    80000608:	03213023          	sd	x18,32(x2)
    8000060c:	04010413          	addi	x8,x2,64
    80000610:	00060463          	beq	x12,x0,80000618 <printint+0x1c>
    80000614:	0a054663          	blt	x10,x0,800006c0 <printint+0xc4>
    80000618:	00000313          	addi	x6,x0,0
    8000061c:	fc840913          	addi	x18,x8,-56
    80000620:	00090693          	addi	x13,x18,0
    80000624:	00000713          	addi	x14,x0,0
    80000628:	00009817          	auipc	x16,0x9
    8000062c:	25080813          	addi	x16,x16,592 # 80009878 <digits>
    80000630:	00070893          	addi	x17,x14,0
    80000634:	0017061b          	addiw	x12,x14,1
    80000638:	00060713          	addi	x14,x12,0
    8000063c:	02b577b3          	remu	x15,x10,x11
    80000640:	00f807b3          	add	x15,x16,x15
    80000644:	0007c783          	lbu	x15,0(x15)
    80000648:	00f68023          	sb	x15,0(x13)
    8000064c:	00050793          	addi	x15,x10,0
    80000650:	02b55533          	divu	x10,x10,x11
    80000654:	00168693          	addi	x13,x13,1
    80000658:	fcb7fce3          	bgeu	x15,x11,80000630 <printint+0x34>
    8000065c:	00030c63          	beq	x6,x0,80000674 <printint+0x78>
    80000660:	fe060793          	addi	x15,x12,-32
    80000664:	00878633          	add	x12,x15,x8
    80000668:	02d00793          	addi	x15,x0,45
    8000066c:	fef60423          	sb	x15,-24(x12)
    80000670:	0028871b          	addiw	x14,x17,2
    80000674:	02e05c63          	bge	x0,x14,800006ac <printint+0xb0>
    80000678:	02913423          	sd	x9,40(x2)
    8000067c:	fff7071b          	addiw	x14,x14,-1
    80000680:	00e904b3          	add	x9,x18,x14
    80000684:	fff90913          	addi	x18,x18,-1
    80000688:	00e90933          	add	x18,x18,x14
    8000068c:	02071713          	slli	x14,x14,0x20
    80000690:	02075713          	srli	x14,x14,0x20
    80000694:	40e90933          	sub	x18,x18,x14
    80000698:	0004c503          	lbu	x10,0(x9)
    8000069c:	cf9ff0ef          	jal	x1,80000394 <consputc>
    800006a0:	fff48493          	addi	x9,x9,-1
    800006a4:	ff249ae3          	bne	x9,x18,80000698 <printint+0x9c>
    800006a8:	02813483          	ld	x9,40(x2)
    800006ac:	03813083          	ld	x1,56(x2)
    800006b0:	03013403          	ld	x8,48(x2)
    800006b4:	02013903          	ld	x18,32(x2)
    800006b8:	04010113          	addi	x2,x2,64
    800006bc:	00008067          	jalr	x0,0(x1)
    800006c0:	40a00533          	sub	x10,x0,x10
    800006c4:	00100313          	addi	x6,x0,1
    800006c8:	f55ff06f          	jal	x0,8000061c <printint+0x20>

00000000800006cc <printf>:
    800006cc:	f4010113          	addi	x2,x2,-192
    800006d0:	06113c23          	sd	x1,120(x2)
    800006d4:	06813823          	sd	x8,112(x2)
    800006d8:	07213023          	sd	x18,96(x2)
    800006dc:	08010413          	addi	x8,x2,128
    800006e0:	00050913          	addi	x18,x10,0
    800006e4:	00b43423          	sd	x11,8(x8)
    800006e8:	00c43823          	sd	x12,16(x8)
    800006ec:	00d43c23          	sd	x13,24(x8)
    800006f0:	02e43023          	sd	x14,32(x8)
    800006f4:	02f43423          	sd	x15,40(x8)
    800006f8:	03043823          	sd	x16,48(x8)
    800006fc:	03143c23          	sd	x17,56(x8)
    80000700:	001fd797          	auipc	x15,0x1fd
    80000704:	2a47a783          	lw	x15,676(x15) # 801fd9a4 <panicking>
    80000708:	04078c63          	beq	x15,x0,80000760 <printf+0x94>
    8000070c:	00840793          	addi	x15,x8,8
    80000710:	f8f43423          	sd	x15,-120(x8)
    80000714:	00094503          	lbu	x10,0(x18)
    80000718:	2c050663          	beq	x10,x0,800009e4 <printf+0x318>
    8000071c:	06913423          	sd	x9,104(x2)
    80000720:	05313c23          	sd	x19,88(x2)
    80000724:	05413823          	sd	x20,80(x2)
    80000728:	05513423          	sd	x21,72(x2)
    8000072c:	05613023          	sd	x22,64(x2)
    80000730:	03713c23          	sd	x23,56(x2)
    80000734:	03813823          	sd	x24,48(x2)
    80000738:	03a13023          	sd	x26,32(x2)
    8000073c:	01b13c23          	sd	x27,24(x2)
    80000740:	00000a13          	addi	x20,x0,0
    80000744:	02500993          	addi	x19,x0,37
    80000748:	07500c13          	addi	x24,x0,117
    8000074c:	07800d13          	addi	x26,x0,120
    80000750:	07000d93          	addi	x27,x0,112
    80000754:	00a00b13          	addi	x22,x0,10
    80000758:	06400b93          	addi	x23,x0,100
    8000075c:	0300006f          	jal	x0,8000078c <printf+0xc0>
    80000760:	00205517          	auipc	x10,0x205
    80000764:	31850513          	addi	x10,x10,792 # 80205a78 <pr>
    80000768:	129000ef          	jal	x1,80001090 <acquire>
    8000076c:	fa1ff06f          	jal	x0,8000070c <printf+0x40>
    80000770:	c25ff0ef          	jal	x1,80000394 <consputc>
    80000774:	000a0493          	addi	x9,x20,0
    80000778:	0014849b          	addiw	x9,x9,1
    8000077c:	00048a13          	addi	x20,x9,0
    80000780:	009904b3          	add	x9,x18,x9
    80000784:	0004c503          	lbu	x10,0(x9)
    80000788:	22050c63          	beq	x10,x0,800009c0 <printf+0x2f4>
    8000078c:	ff3512e3          	bne	x10,x19,80000770 <printf+0xa4>
    80000790:	001a079b          	addiw	x15,x20,1
    80000794:	00078493          	addi	x9,x15,0
    80000798:	00f90733          	add	x14,x18,x15
    8000079c:	00074a83          	lbu	x21,0(x14)
    800007a0:	2a0a8c63          	beq	x21,x0,80000a58 <printf+0x38c>
    800007a4:	00174683          	lbu	x13,1(x14)
    800007a8:	28068c63          	beq	x13,x0,80000a40 <printf+0x374>
    800007ac:	037a8e63          	beq	x21,x23,800007e8 <printf+0x11c>
    800007b0:	f94a8713          	addi	x14,x21,-108
    800007b4:	00173713          	sltiu	x14,x14,1
    800007b8:	f9c68613          	addi	x12,x13,-100
    800007bc:	04061663          	bne	x12,x0,80000808 <printf+0x13c>
    800007c0:	04070463          	beq	x14,x0,80000808 <printf+0x13c>
    800007c4:	f8843783          	ld	x15,-120(x8)
    800007c8:	00878713          	addi	x14,x15,8
    800007cc:	f8e43423          	sd	x14,-120(x8)
    800007d0:	00100613          	addi	x12,x0,1
    800007d4:	000b0593          	addi	x11,x22,0
    800007d8:	0007b503          	ld	x10,0(x15)
    800007dc:	e21ff0ef          	jal	x1,800005fc <printint>
    800007e0:	002a049b          	addiw	x9,x20,2
    800007e4:	f95ff06f          	jal	x0,80000778 <printf+0xac>
    800007e8:	f8843783          	ld	x15,-120(x8)
    800007ec:	00878713          	addi	x14,x15,8
    800007f0:	f8e43423          	sd	x14,-120(x8)
    800007f4:	00100613          	addi	x12,x0,1
    800007f8:	000b0593          	addi	x11,x22,0
    800007fc:	0007a503          	lw	x10,0(x15)
    80000800:	dfdff0ef          	jal	x1,800005fc <printint>
    80000804:	f75ff06f          	jal	x0,80000778 <printf+0xac>
    80000808:	00f907b3          	add	x15,x18,x15
    8000080c:	00068613          	addi	x12,x13,0
    80000810:	0027c683          	lbu	x13,2(x15)
    80000814:	2540006f          	jal	x0,80000a68 <printf+0x39c>
    80000818:	f8843783          	ld	x15,-120(x8)
    8000081c:	00878713          	addi	x14,x15,8
    80000820:	f8e43423          	sd	x14,-120(x8)
    80000824:	00100613          	addi	x12,x0,1
    80000828:	00a00593          	addi	x11,x0,10
    8000082c:	0007b503          	ld	x10,0(x15)
    80000830:	dcdff0ef          	jal	x1,800005fc <printint>
    80000834:	003a049b          	addiw	x9,x20,3
    80000838:	f41ff06f          	jal	x0,80000778 <printf+0xac>
    8000083c:	f8843783          	ld	x15,-120(x8)
    80000840:	00878713          	addi	x14,x15,8
    80000844:	f8e43423          	sd	x14,-120(x8)
    80000848:	00000613          	addi	x12,x0,0
    8000084c:	000b0593          	addi	x11,x22,0
    80000850:	0007e503          	lwu	x10,0(x15)
    80000854:	da9ff0ef          	jal	x1,800005fc <printint>
    80000858:	f21ff06f          	jal	x0,80000778 <printf+0xac>
    8000085c:	f8843783          	ld	x15,-120(x8)
    80000860:	00878713          	addi	x14,x15,8
    80000864:	f8e43423          	sd	x14,-120(x8)
    80000868:	00000613          	addi	x12,x0,0
    8000086c:	000b0593          	addi	x11,x22,0
    80000870:	0007b503          	ld	x10,0(x15)
    80000874:	d89ff0ef          	jal	x1,800005fc <printint>
    80000878:	002a049b          	addiw	x9,x20,2
    8000087c:	efdff06f          	jal	x0,80000778 <printf+0xac>
    80000880:	f8843783          	ld	x15,-120(x8)
    80000884:	00878713          	addi	x14,x15,8
    80000888:	f8e43423          	sd	x14,-120(x8)
    8000088c:	00000613          	addi	x12,x0,0
    80000890:	00a00593          	addi	x11,x0,10
    80000894:	0007b503          	ld	x10,0(x15)
    80000898:	d65ff0ef          	jal	x1,800005fc <printint>
    8000089c:	003a049b          	addiw	x9,x20,3
    800008a0:	ed9ff06f          	jal	x0,80000778 <printf+0xac>
    800008a4:	f8843783          	ld	x15,-120(x8)
    800008a8:	00878713          	addi	x14,x15,8
    800008ac:	f8e43423          	sd	x14,-120(x8)
    800008b0:	00000613          	addi	x12,x0,0
    800008b4:	01000593          	addi	x11,x0,16
    800008b8:	0007e503          	lwu	x10,0(x15)
    800008bc:	d41ff0ef          	jal	x1,800005fc <printint>
    800008c0:	eb9ff06f          	jal	x0,80000778 <printf+0xac>
    800008c4:	f8843783          	ld	x15,-120(x8)
    800008c8:	00878713          	addi	x14,x15,8
    800008cc:	f8e43423          	sd	x14,-120(x8)
    800008d0:	01000593          	addi	x11,x0,16
    800008d4:	0007b503          	ld	x10,0(x15)
    800008d8:	d25ff0ef          	jal	x1,800005fc <printint>
    800008dc:	002a049b          	addiw	x9,x20,2
    800008e0:	e99ff06f          	jal	x0,80000778 <printf+0xac>
    800008e4:	f8843783          	ld	x15,-120(x8)
    800008e8:	00878713          	addi	x14,x15,8
    800008ec:	f8e43423          	sd	x14,-120(x8)
    800008f0:	00000613          	addi	x12,x0,0
    800008f4:	01000593          	addi	x11,x0,16
    800008f8:	0007b503          	ld	x10,0(x15)
    800008fc:	d01ff0ef          	jal	x1,800005fc <printint>
    80000900:	003a049b          	addiw	x9,x20,3
    80000904:	e75ff06f          	jal	x0,80000778 <printf+0xac>
    80000908:	03913423          	sd	x25,40(x2)
    8000090c:	f8843783          	ld	x15,-120(x8)
    80000910:	00878713          	addi	x14,x15,8
    80000914:	f8e43423          	sd	x14,-120(x8)
    80000918:	0007ba83          	ld	x21,0(x15)
    8000091c:	03000513          	addi	x10,x0,48
    80000920:	a75ff0ef          	jal	x1,80000394 <consputc>
    80000924:	07800513          	addi	x10,x0,120
    80000928:	a6dff0ef          	jal	x1,80000394 <consputc>
    8000092c:	01000a13          	addi	x20,x0,16
    80000930:	00009c97          	auipc	x25,0x9
    80000934:	f48c8c93          	addi	x25,x25,-184 # 80009878 <digits>
    80000938:	03cad793          	srli	x15,x21,0x3c
    8000093c:	00fc87b3          	add	x15,x25,x15
    80000940:	0007c503          	lbu	x10,0(x15)
    80000944:	a51ff0ef          	jal	x1,80000394 <consputc>
    80000948:	004a9a93          	slli	x21,x21,0x4
    8000094c:	fffa0a1b          	addiw	x20,x20,-1
    80000950:	fe0a14e3          	bne	x20,x0,80000938 <printf+0x26c>
    80000954:	02813c83          	ld	x25,40(x2)
    80000958:	e21ff06f          	jal	x0,80000778 <printf+0xac>
    8000095c:	f8843783          	ld	x15,-120(x8)
    80000960:	00878713          	addi	x14,x15,8
    80000964:	f8e43423          	sd	x14,-120(x8)
    80000968:	0007a503          	lw	x10,0(x15)
    8000096c:	a29ff0ef          	jal	x1,80000394 <consputc>
    80000970:	e09ff06f          	jal	x0,80000778 <printf+0xac>
    80000974:	f8843783          	ld	x15,-120(x8)
    80000978:	00878713          	addi	x14,x15,8
    8000097c:	f8e43423          	sd	x14,-120(x8)
    80000980:	0007ba03          	ld	x20,0(x15)
    80000984:	020a0063          	beq	x20,x0,800009a4 <printf+0x2d8>
    80000988:	000a4503          	lbu	x10,0(x20)
    8000098c:	de0506e3          	beq	x10,x0,80000778 <printf+0xac>
    80000990:	a05ff0ef          	jal	x1,80000394 <consputc>
    80000994:	001a0a13          	addi	x20,x20,1
    80000998:	000a4503          	lbu	x10,0(x20)
    8000099c:	fe051ae3          	bne	x10,x0,80000990 <printf+0x2c4>
    800009a0:	dd9ff06f          	jal	x0,80000778 <printf+0xac>
    800009a4:	00008a17          	auipc	x20,0x8
    800009a8:	664a0a13          	addi	x20,x20,1636 # 80009008 <etext+0x8>
    800009ac:	02800513          	addi	x10,x0,40
    800009b0:	fe1ff06f          	jal	x0,80000990 <printf+0x2c4>
    800009b4:	000a8513          	addi	x10,x21,0
    800009b8:	9ddff0ef          	jal	x1,80000394 <consputc>
    800009bc:	dbdff06f          	jal	x0,80000778 <printf+0xac>
    800009c0:	06813483          	ld	x9,104(x2)
    800009c4:	05813983          	ld	x19,88(x2)
    800009c8:	05013a03          	ld	x20,80(x2)
    800009cc:	04813a83          	ld	x21,72(x2)
    800009d0:	04013b03          	ld	x22,64(x2)
    800009d4:	03813b83          	ld	x23,56(x2)
    800009d8:	03013c03          	ld	x24,48(x2)
    800009dc:	02013d03          	ld	x26,32(x2)
    800009e0:	01813d83          	ld	x27,24(x2)
    800009e4:	001fd797          	auipc	x15,0x1fd
    800009e8:	fc07a783          	lw	x15,-64(x15) # 801fd9a4 <panicking>
    800009ec:	04078263          	beq	x15,x0,80000a30 <printf+0x364>
    800009f0:	00000513          	addi	x10,x0,0
    800009f4:	07813083          	ld	x1,120(x2)
    800009f8:	07013403          	ld	x8,112(x2)
    800009fc:	06013903          	ld	x18,96(x2)
    80000a00:	0c010113          	addi	x2,x2,192
    80000a04:	00008067          	jalr	x0,0(x1)
    80000a08:	06813483          	ld	x9,104(x2)
    80000a0c:	05813983          	ld	x19,88(x2)
    80000a10:	05013a03          	ld	x20,80(x2)
    80000a14:	04813a83          	ld	x21,72(x2)
    80000a18:	04013b03          	ld	x22,64(x2)
    80000a1c:	03813b83          	ld	x23,56(x2)
    80000a20:	03013c03          	ld	x24,48(x2)
    80000a24:	02013d03          	ld	x26,32(x2)
    80000a28:	01813d83          	ld	x27,24(x2)
    80000a2c:	fb9ff06f          	jal	x0,800009e4 <printf+0x318>
    80000a30:	00205517          	auipc	x10,0x205
    80000a34:	04850513          	addi	x10,x10,72 # 80205a78 <pr>
    80000a38:	730000ef          	jal	x1,80001168 <release>
    80000a3c:	fb5ff06f          	jal	x0,800009f0 <printf+0x324>
    80000a40:	db7a84e3          	beq	x21,x23,800007e8 <printf+0x11c>
    80000a44:	f94a8713          	addi	x14,x21,-108
    80000a48:	00173713          	sltiu	x14,x14,1
    80000a4c:	00068613          	addi	x12,x13,0
    80000a50:	00000793          	addi	x15,x0,0
    80000a54:	02c0006f          	jal	x0,80000a80 <printf+0x3b4>
    80000a58:	f94a8713          	addi	x14,x21,-108
    80000a5c:	00173713          	sltiu	x14,x14,1
    80000a60:	000a8613          	addi	x12,x21,0
    80000a64:	000a8693          	addi	x13,x21,0
    80000a68:	f9460793          	addi	x15,x12,-108
    80000a6c:	0017b793          	sltiu	x15,x15,1
    80000a70:	00f777b3          	and	x15,x14,x15
    80000a74:	f9c68593          	addi	x11,x13,-100
    80000a78:	00059463          	bne	x11,x0,80000a80 <printf+0x3b4>
    80000a7c:	d8079ee3          	bne	x15,x0,80000818 <printf+0x14c>
    80000a80:	db8a8ee3          	beq	x21,x24,8000083c <printf+0x170>
    80000a84:	f8b60593          	addi	x11,x12,-117
    80000a88:	00059463          	bne	x11,x0,80000a90 <printf+0x3c4>
    80000a8c:	dc0718e3          	bne	x14,x0,8000085c <printf+0x190>
    80000a90:	f8b68593          	addi	x11,x13,-117
    80000a94:	00059463          	bne	x11,x0,80000a9c <printf+0x3d0>
    80000a98:	de0794e3          	bne	x15,x0,80000880 <printf+0x1b4>
    80000a9c:	e1aa84e3          	beq	x21,x26,800008a4 <printf+0x1d8>
    80000aa0:	f8860613          	addi	x12,x12,-120
    80000aa4:	00061463          	bne	x12,x0,80000aac <printf+0x3e0>
    80000aa8:	e0071ee3          	bne	x14,x0,800008c4 <printf+0x1f8>
    80000aac:	f8868693          	addi	x13,x13,-120
    80000ab0:	00069463          	bne	x13,x0,80000ab8 <printf+0x3ec>
    80000ab4:	e20798e3          	bne	x15,x0,800008e4 <printf+0x218>
    80000ab8:	e5ba88e3          	beq	x21,x27,80000908 <printf+0x23c>
    80000abc:	06300793          	addi	x15,x0,99
    80000ac0:	e8fa8ee3          	beq	x21,x15,8000095c <printf+0x290>
    80000ac4:	07300793          	addi	x15,x0,115
    80000ac8:	eafa86e3          	beq	x21,x15,80000974 <printf+0x2a8>
    80000acc:	02500793          	addi	x15,x0,37
    80000ad0:	eefa82e3          	beq	x21,x15,800009b4 <printf+0x2e8>
    80000ad4:	f20a8ae3          	beq	x21,x0,80000a08 <printf+0x33c>
    80000ad8:	02500513          	addi	x10,x0,37
    80000adc:	8b9ff0ef          	jal	x1,80000394 <consputc>
    80000ae0:	000a8513          	addi	x10,x21,0
    80000ae4:	8b1ff0ef          	jal	x1,80000394 <consputc>
    80000ae8:	c91ff06f          	jal	x0,80000778 <printf+0xac>

0000000080000aec <panic>:
    80000aec:	fe010113          	addi	x2,x2,-32
    80000af0:	00113c23          	sd	x1,24(x2)
    80000af4:	00813823          	sd	x8,16(x2)
    80000af8:	00913423          	sd	x9,8(x2)
    80000afc:	01213023          	sd	x18,0(x2)
    80000b00:	02010413          	addi	x8,x2,32
    80000b04:	00050913          	addi	x18,x10,0
    80000b08:	00100493          	addi	x9,x0,1
    80000b0c:	001fd797          	auipc	x15,0x1fd
    80000b10:	e897ac23          	sw	x9,-360(x15) # 801fd9a4 <panicking>
    80000b14:	00008517          	auipc	x10,0x8
    80000b18:	50450513          	addi	x10,x10,1284 # 80009018 <etext+0x18>
    80000b1c:	bb1ff0ef          	jal	x1,800006cc <printf>
    80000b20:	00090593          	addi	x11,x18,0
    80000b24:	00008517          	auipc	x10,0x8
    80000b28:	4fc50513          	addi	x10,x10,1276 # 80009020 <etext+0x20>
    80000b2c:	ba1ff0ef          	jal	x1,800006cc <printf>
    80000b30:	001fd797          	auipc	x15,0x1fd
    80000b34:	e697a823          	sw	x9,-400(x15) # 801fd9a0 <panicked>
    80000b38:	0000006f          	jal	x0,80000b38 <panic+0x4c>

0000000080000b3c <printfinit>:
    80000b3c:	ff010113          	addi	x2,x2,-16
    80000b40:	00113423          	sd	x1,8(x2)
    80000b44:	00813023          	sd	x8,0(x2)
    80000b48:	01010413          	addi	x8,x2,16
    80000b4c:	00008597          	auipc	x11,0x8
    80000b50:	4dc58593          	addi	x11,x11,1244 # 80009028 <etext+0x28>
    80000b54:	00205517          	auipc	x10,0x205
    80000b58:	f2450513          	addi	x10,x10,-220 # 80205a78 <pr>
    80000b5c:	450000ef          	jal	x1,80000fac <initlock>
    80000b60:	00813083          	ld	x1,8(x2)
    80000b64:	00013403          	ld	x8,0(x2)
    80000b68:	01010113          	addi	x2,x2,16
    80000b6c:	00008067          	jalr	x0,0(x1)

0000000080000b70 <uartinit>:
    80000b70:	ff010113          	addi	x2,x2,-16
    80000b74:	00113423          	sd	x1,8(x2)
    80000b78:	00813023          	sd	x8,0(x2)
    80000b7c:	01010413          	addi	x8,x2,16
    80000b80:	100007b7          	lui	x15,0x10000
    80000b84:	000780a3          	sb	x0,1(x15) # 10000001 <_binary_fs_img_size+0xfe0c001>
    80000b88:	10000737          	lui	x14,0x10000
    80000b8c:	f8000693          	addi	x13,x0,-128
    80000b90:	00d701a3          	sb	x13,3(x14) # 10000003 <_binary_fs_img_size+0xfe0c003>
    80000b94:	00300693          	addi	x13,x0,3
    80000b98:	10000637          	lui	x12,0x10000
    80000b9c:	00d60023          	sb	x13,0(x12) # 10000000 <_binary_fs_img_size+0xfe0c000>
    80000ba0:	000780a3          	sb	x0,1(x15)
    80000ba4:	00d701a3          	sb	x13,3(x14)
    80000ba8:	00060713          	addi	x14,x12,0
    80000bac:	00700613          	addi	x12,x0,7
    80000bb0:	00c70123          	sb	x12,2(x14)
    80000bb4:	00d780a3          	sb	x13,1(x15)
    80000bb8:	00008597          	auipc	x11,0x8
    80000bbc:	47858593          	addi	x11,x11,1144 # 80009030 <etext+0x30>
    80000bc0:	00205517          	auipc	x10,0x205
    80000bc4:	ed050513          	addi	x10,x10,-304 # 80205a90 <tx_lock>
    80000bc8:	3e4000ef          	jal	x1,80000fac <initlock>
    80000bcc:	00813083          	ld	x1,8(x2)
    80000bd0:	00013403          	ld	x8,0(x2)
    80000bd4:	01010113          	addi	x2,x2,16
    80000bd8:	00008067          	jalr	x0,0(x1)

0000000080000bdc <uartputc_sync>:
    80000bdc:	fe010113          	addi	x2,x2,-32
    80000be0:	00113c23          	sd	x1,24(x2)
    80000be4:	00813823          	sd	x8,16(x2)
    80000be8:	00913423          	sd	x9,8(x2)
    80000bec:	02010413          	addi	x8,x2,32
    80000bf0:	00050493          	addi	x9,x10,0
    80000bf4:	001fd797          	auipc	x15,0x1fd
    80000bf8:	db07a783          	lw	x15,-592(x15) # 801fd9a4 <panicking>
    80000bfc:	04078863          	beq	x15,x0,80000c4c <uartputc_sync+0x70>
    80000c00:	001fd797          	auipc	x15,0x1fd
    80000c04:	da07a783          	lw	x15,-608(x15) # 801fd9a0 <panicked>
    80000c08:	04079663          	bne	x15,x0,80000c54 <uartputc_sync+0x78>
    80000c0c:	10000737          	lui	x14,0x10000
    80000c10:	00570713          	addi	x14,x14,5 # 10000005 <_binary_fs_img_size+0xfe0c005>
    80000c14:	00074783          	lbu	x15,0(x14)
    80000c18:	0207f793          	andi	x15,x15,32
    80000c1c:	fe078ce3          	beq	x15,x0,80000c14 <uartputc_sync+0x38>
    80000c20:	0ff4f513          	andi	x10,x9,255
    80000c24:	100007b7          	lui	x15,0x10000
    80000c28:	00a78023          	sb	x10,0(x15) # 10000000 <_binary_fs_img_size+0xfe0c000>
    80000c2c:	001fd797          	auipc	x15,0x1fd
    80000c30:	d787a783          	lw	x15,-648(x15) # 801fd9a4 <panicking>
    80000c34:	02078263          	beq	x15,x0,80000c58 <uartputc_sync+0x7c>
    80000c38:	01813083          	ld	x1,24(x2)
    80000c3c:	01013403          	ld	x8,16(x2)
    80000c40:	00813483          	ld	x9,8(x2)
    80000c44:	02010113          	addi	x2,x2,32
    80000c48:	00008067          	jalr	x0,0(x1)
    80000c4c:	3d8000ef          	jal	x1,80001024 <push_off>
    80000c50:	fb1ff06f          	jal	x0,80000c00 <uartputc_sync+0x24>
    80000c54:	0000006f          	jal	x0,80000c54 <uartputc_sync+0x78>
    80000c58:	4a0000ef          	jal	x1,800010f8 <pop_off>
    80000c5c:	fddff06f          	jal	x0,80000c38 <uartputc_sync+0x5c>

0000000080000c60 <uartwrite>:
    80000c60:	fd010113          	addi	x2,x2,-48
    80000c64:	02113423          	sd	x1,40(x2)
    80000c68:	02813023          	sd	x8,32(x2)
    80000c6c:	01213823          	sd	x18,16(x2)
    80000c70:	01313423          	sd	x19,8(x2)
    80000c74:	03010413          	addi	x8,x2,48
    80000c78:	00050913          	addi	x18,x10,0
    80000c7c:	00058993          	addi	x19,x11,0
    80000c80:	00205517          	auipc	x10,0x205
    80000c84:	e1050513          	addi	x10,x10,-496 # 80205a90 <tx_lock>
    80000c88:	408000ef          	jal	x1,80001090 <acquire>
    80000c8c:	03305263          	bge	x0,x19,80000cb0 <uartwrite+0x50>
    80000c90:	00913c23          	sd	x9,24(x2)
    80000c94:	00090493          	addi	x9,x18,0
    80000c98:	01390933          	add	x18,x18,x19
    80000c9c:	0004c503          	lbu	x10,0(x9)
    80000ca0:	f3dff0ef          	jal	x1,80000bdc <uartputc_sync>
    80000ca4:	00148493          	addi	x9,x9,1
    80000ca8:	ff249ae3          	bne	x9,x18,80000c9c <uartwrite+0x3c>
    80000cac:	01813483          	ld	x9,24(x2)
    80000cb0:	00205517          	auipc	x10,0x205
    80000cb4:	de050513          	addi	x10,x10,-544 # 80205a90 <tx_lock>
    80000cb8:	4b0000ef          	jal	x1,80001168 <release>
    80000cbc:	02813083          	ld	x1,40(x2)
    80000cc0:	02013403          	ld	x8,32(x2)
    80000cc4:	01013903          	ld	x18,16(x2)
    80000cc8:	00813983          	ld	x19,8(x2)
    80000ccc:	03010113          	addi	x2,x2,48
    80000cd0:	00008067          	jalr	x0,0(x1)

0000000080000cd4 <uartgetc>:
    80000cd4:	ff010113          	addi	x2,x2,-16
    80000cd8:	00113423          	sd	x1,8(x2)
    80000cdc:	00813023          	sd	x8,0(x2)
    80000ce0:	01010413          	addi	x8,x2,16
    80000ce4:	100007b7          	lui	x15,0x10000
    80000ce8:	0057c783          	lbu	x15,5(x15) # 10000005 <_binary_fs_img_size+0xfe0c005>
    80000cec:	0017f793          	andi	x15,x15,1
    80000cf0:	00078e63          	beq	x15,x0,80000d0c <uartgetc+0x38>
    80000cf4:	100007b7          	lui	x15,0x10000
    80000cf8:	0007c503          	lbu	x10,0(x15) # 10000000 <_binary_fs_img_size+0xfe0c000>
    80000cfc:	00813083          	ld	x1,8(x2)
    80000d00:	00013403          	ld	x8,0(x2)
    80000d04:	01010113          	addi	x2,x2,16
    80000d08:	00008067          	jalr	x0,0(x1)
    80000d0c:	fff00513          	addi	x10,x0,-1
    80000d10:	fedff06f          	jal	x0,80000cfc <uartgetc+0x28>

0000000080000d14 <uartintr>:
    80000d14:	fe010113          	addi	x2,x2,-32
    80000d18:	00113c23          	sd	x1,24(x2)
    80000d1c:	00813823          	sd	x8,16(x2)
    80000d20:	00913423          	sd	x9,8(x2)
    80000d24:	02010413          	addi	x8,x2,32
    80000d28:	100007b7          	lui	x15,0x10000
    80000d2c:	0027c783          	lbu	x15,2(x15) # 10000002 <_binary_fs_img_size+0xfe0c002>
    80000d30:	00205517          	auipc	x10,0x205
    80000d34:	d6050513          	addi	x10,x10,-672 # 80205a90 <tx_lock>
    80000d38:	358000ef          	jal	x1,80001090 <acquire>
    80000d3c:	100007b7          	lui	x15,0x10000
    80000d40:	0057c783          	lbu	x15,5(x15) # 10000005 <_binary_fs_img_size+0xfe0c005>
    80000d44:	0207f793          	andi	x15,x15,32
    80000d48:	02079263          	bne	x15,x0,80000d6c <uartintr+0x58>
    80000d4c:	00205517          	auipc	x10,0x205
    80000d50:	d4450513          	addi	x10,x10,-700 # 80205a90 <tx_lock>
    80000d54:	414000ef          	jal	x1,80001168 <release>
    80000d58:	fff00493          	addi	x9,x0,-1
    80000d5c:	f79ff0ef          	jal	x1,80000cd4 <uartgetc>
    80000d60:	00950e63          	beq	x10,x9,80000d7c <uartintr+0x68>
    80000d64:	e78ff0ef          	jal	x1,800003dc <consoleintr>
    80000d68:	ff5ff06f          	jal	x0,80000d5c <uartintr+0x48>
    80000d6c:	001fd517          	auipc	x10,0x1fd
    80000d70:	c3c50513          	addi	x10,x10,-964 # 801fd9a8 <tx_chan>
    80000d74:	1fc020ef          	jal	x1,80002f70 <wakeup>
    80000d78:	fd5ff06f          	jal	x0,80000d4c <uartintr+0x38>
    80000d7c:	01813083          	ld	x1,24(x2)
    80000d80:	01013403          	ld	x8,16(x2)
    80000d84:	00813483          	ld	x9,8(x2)
    80000d88:	02010113          	addi	x2,x2,32
    80000d8c:	00008067          	jalr	x0,0(x1)

0000000080000d90 <kfree>:
    80000d90:	fe010113          	addi	x2,x2,-32
    80000d94:	00113c23          	sd	x1,24(x2)
    80000d98:	00813823          	sd	x8,16(x2)
    80000d9c:	00913423          	sd	x9,8(x2)
    80000da0:	01213023          	sd	x18,0(x2)
    80000da4:	02010413          	addi	x8,x2,32
    80000da8:	0040a797          	auipc	x15,0x40a
    80000dac:	e0878793          	addi	x15,x15,-504 # 8040abb0 <end>
    80000db0:	00f53733          	sltu	x14,x10,x15
    80000db4:	08100793          	addi	x15,x0,129
    80000db8:	01879793          	slli	x15,x15,0x18
    80000dbc:	fff78793          	addi	x15,x15,-1
    80000dc0:	00a7b7b3          	sltu	x15,x15,x10
    80000dc4:	00f767b3          	or	x15,x14,x15
    80000dc8:	04079663          	bne	x15,x0,80000e14 <kfree+0x84>
    80000dcc:	00050493          	addi	x9,x10,0
    80000dd0:	03451793          	slli	x15,x10,0x34
    80000dd4:	04079063          	bne	x15,x0,80000e14 <kfree+0x84>
    80000dd8:	00205917          	auipc	x18,0x205
    80000ddc:	cd090913          	addi	x18,x18,-816 # 80205aa8 <kmem>
    80000de0:	00090513          	addi	x10,x18,0
    80000de4:	2ac000ef          	jal	x1,80001090 <acquire>
    80000de8:	01893783          	ld	x15,24(x18)
    80000dec:	00f4b023          	sd	x15,0(x9)
    80000df0:	00993c23          	sd	x9,24(x18)
    80000df4:	00090513          	addi	x10,x18,0
    80000df8:	370000ef          	jal	x1,80001168 <release>
    80000dfc:	01813083          	ld	x1,24(x2)
    80000e00:	01013403          	ld	x8,16(x2)
    80000e04:	00813483          	ld	x9,8(x2)
    80000e08:	00013903          	ld	x18,0(x2)
    80000e0c:	02010113          	addi	x2,x2,32
    80000e10:	00008067          	jalr	x0,0(x1)
    80000e14:	00008517          	auipc	x10,0x8
    80000e18:	22450513          	addi	x10,x10,548 # 80009038 <etext+0x38>
    80000e1c:	cd1ff0ef          	jal	x1,80000aec <panic>

0000000080000e20 <freerange>:
    80000e20:	fb010113          	addi	x2,x2,-80
    80000e24:	04113423          	sd	x1,72(x2)
    80000e28:	04813023          	sd	x8,64(x2)
    80000e2c:	02913c23          	sd	x9,56(x2)
    80000e30:	05010413          	addi	x8,x2,80
    80000e34:	000017b7          	lui	x15,0x1
    80000e38:	fff78713          	addi	x14,x15,-1 # fff <_binary_fs_img_size-0x1f3001>
    80000e3c:	00e50533          	add	x10,x10,x14
    80000e40:	fffff737          	lui	x14,0xfffff
    80000e44:	00e574b3          	and	x9,x10,x14
    80000e48:	00f487b3          	add	x15,x9,x15
    80000e4c:	08f5e463          	bltu	x11,x15,80000ed4 <freerange+0xb4>
    80000e50:	03213823          	sd	x18,48(x2)
    80000e54:	03313423          	sd	x19,40(x2)
    80000e58:	03413023          	sd	x20,32(x2)
    80000e5c:	01513c23          	sd	x21,24(x2)
    80000e60:	01613823          	sd	x22,16(x2)
    80000e64:	01713423          	sd	x23,8(x2)
    80000e68:	00058993          	addi	x19,x11,0
    80000e6c:	00200a37          	lui	x20,0x200
    80000e70:	fffa0a13          	addi	x20,x20,-1 # 1fffff <_binary_fs_img_size+0xbfff>
    80000e74:	00008b97          	auipc	x23,0x8
    80000e78:	1ccb8b93          	addi	x23,x23,460 # 80009040 <etext+0x40>
    80000e7c:	00001b37          	lui	x22,0x1
    80000e80:	00002ab7          	lui	x21,0x2
    80000e84:	01c0006f          	jal	x0,80000ea0 <freerange+0x80>
    80000e88:	00090513          	addi	x10,x18,0
    80000e8c:	f05ff0ef          	jal	x1,80000d90 <kfree>
    80000e90:	016487b3          	add	x15,x9,x22
    80000e94:	015484b3          	add	x9,x9,x21
    80000e98:	0299e263          	bltu	x19,x9,80000ebc <freerange+0x9c>
    80000e9c:	00078493          	addi	x9,x15,0
    80000ea0:	00048913          	addi	x18,x9,0
    80000ea4:	0144f7b3          	and	x15,x9,x20
    80000ea8:	fe0790e3          	bne	x15,x0,80000e88 <freerange+0x68>
    80000eac:	00048593          	addi	x11,x9,0
    80000eb0:	000b8513          	addi	x10,x23,0
    80000eb4:	819ff0ef          	jal	x1,800006cc <printf>
    80000eb8:	fd1ff06f          	jal	x0,80000e88 <freerange+0x68>
    80000ebc:	03013903          	ld	x18,48(x2)
    80000ec0:	02813983          	ld	x19,40(x2)
    80000ec4:	02013a03          	ld	x20,32(x2)
    80000ec8:	01813a83          	ld	x21,24(x2)
    80000ecc:	01013b03          	ld	x22,16(x2)
    80000ed0:	00813b83          	ld	x23,8(x2)
    80000ed4:	04813083          	ld	x1,72(x2)
    80000ed8:	04013403          	ld	x8,64(x2)
    80000edc:	03813483          	ld	x9,56(x2)
    80000ee0:	05010113          	addi	x2,x2,80
    80000ee4:	00008067          	jalr	x0,0(x1)

0000000080000ee8 <kinit>:
    80000ee8:	ff010113          	addi	x2,x2,-16
    80000eec:	00113423          	sd	x1,8(x2)
    80000ef0:	00813023          	sd	x8,0(x2)
    80000ef4:	01010413          	addi	x8,x2,16
    80000ef8:	00008597          	auipc	x11,0x8
    80000efc:	16058593          	addi	x11,x11,352 # 80009058 <etext+0x58>
    80000f00:	00205517          	auipc	x10,0x205
    80000f04:	ba850513          	addi	x10,x10,-1112 # 80205aa8 <kmem>
    80000f08:	0a4000ef          	jal	x1,80000fac <initlock>
    80000f0c:	08100593          	addi	x11,x0,129
    80000f10:	01859593          	slli	x11,x11,0x18
    80000f14:	0040a517          	auipc	x10,0x40a
    80000f18:	c9c50513          	addi	x10,x10,-868 # 8040abb0 <end>
    80000f1c:	f05ff0ef          	jal	x1,80000e20 <freerange>
    80000f20:	00813083          	ld	x1,8(x2)
    80000f24:	00013403          	ld	x8,0(x2)
    80000f28:	01010113          	addi	x2,x2,16
    80000f2c:	00008067          	jalr	x0,0(x1)

0000000080000f30 <kalloc>:
    80000f30:	fe010113          	addi	x2,x2,-32
    80000f34:	00113c23          	sd	x1,24(x2)
    80000f38:	00813823          	sd	x8,16(x2)
    80000f3c:	00913423          	sd	x9,8(x2)
    80000f40:	02010413          	addi	x8,x2,32
    80000f44:	00205517          	auipc	x10,0x205
    80000f48:	b6450513          	addi	x10,x10,-1180 # 80205aa8 <kmem>
    80000f4c:	144000ef          	jal	x1,80001090 <acquire>
    80000f50:	00205497          	auipc	x9,0x205
    80000f54:	b704b483          	ld	x9,-1168(x9) # 80205ac0 <kmem+0x18>
    80000f58:	04048263          	beq	x9,x0,80000f9c <kalloc+0x6c>
    80000f5c:	0004b783          	ld	x15,0(x9)
    80000f60:	00205717          	auipc	x14,0x205
    80000f64:	b6f73023          	sd	x15,-1184(x14) # 80205ac0 <kmem+0x18>
    80000f68:	00205517          	auipc	x10,0x205
    80000f6c:	b4050513          	addi	x10,x10,-1216 # 80205aa8 <kmem>
    80000f70:	1f8000ef          	jal	x1,80001168 <release>
    80000f74:	00001637          	lui	x12,0x1
    80000f78:	00500593          	addi	x11,x0,5
    80000f7c:	00048513          	addi	x10,x9,0
    80000f80:	2ac000ef          	jal	x1,8000122c <memset>
    80000f84:	00048513          	addi	x10,x9,0
    80000f88:	01813083          	ld	x1,24(x2)
    80000f8c:	01013403          	ld	x8,16(x2)
    80000f90:	00813483          	ld	x9,8(x2)
    80000f94:	02010113          	addi	x2,x2,32
    80000f98:	00008067          	jalr	x0,0(x1)
    80000f9c:	00205517          	auipc	x10,0x205
    80000fa0:	b0c50513          	addi	x10,x10,-1268 # 80205aa8 <kmem>
    80000fa4:	1c4000ef          	jal	x1,80001168 <release>
    80000fa8:	fddff06f          	jal	x0,80000f84 <kalloc+0x54>

0000000080000fac <initlock>:
    80000fac:	ff010113          	addi	x2,x2,-16
    80000fb0:	00113423          	sd	x1,8(x2)
    80000fb4:	00813023          	sd	x8,0(x2)
    80000fb8:	01010413          	addi	x8,x2,16
    80000fbc:	00b53423          	sd	x11,8(x10)
    80000fc0:	00052023          	sw	x0,0(x10)
    80000fc4:	00053823          	sd	x0,16(x10)
    80000fc8:	00813083          	ld	x1,8(x2)
    80000fcc:	00013403          	ld	x8,0(x2)
    80000fd0:	01010113          	addi	x2,x2,16
    80000fd4:	00008067          	jalr	x0,0(x1)

0000000080000fd8 <holding>:
    80000fd8:	00052783          	lw	x15,0(x10)
    80000fdc:	00079663          	bne	x15,x0,80000fe8 <holding+0x10>
    80000fe0:	00000513          	addi	x10,x0,0
    80000fe4:	00008067          	jalr	x0,0(x1)
    80000fe8:	fe010113          	addi	x2,x2,-32
    80000fec:	00113c23          	sd	x1,24(x2)
    80000ff0:	00813823          	sd	x8,16(x2)
    80000ff4:	00913423          	sd	x9,8(x2)
    80000ff8:	02010413          	addi	x8,x2,32
    80000ffc:	01053783          	ld	x15,16(x10)
    80001000:	00078493          	addi	x9,x15,0
    80001004:	5e4010ef          	jal	x1,800025e8 <mycpu>
    80001008:	40a48533          	sub	x10,x9,x10
    8000100c:	00153513          	sltiu	x10,x10,1
    80001010:	01813083          	ld	x1,24(x2)
    80001014:	01013403          	ld	x8,16(x2)
    80001018:	00813483          	ld	x9,8(x2)
    8000101c:	02010113          	addi	x2,x2,32
    80001020:	00008067          	jalr	x0,0(x1)

0000000080001024 <push_off>:
    80001024:	fe010113          	addi	x2,x2,-32
    80001028:	00113c23          	sd	x1,24(x2)
    8000102c:	00813823          	sd	x8,16(x2)
    80001030:	00913423          	sd	x9,8(x2)
    80001034:	02010413          	addi	x8,x2,32
    80001038:	100027f3          	csrrs	x15,sstatus,x0
    8000103c:	00078493          	addi	x9,x15,0
    80001040:	100027f3          	csrrs	x15,sstatus,x0
    80001044:	ffd7f793          	andi	x15,x15,-3
    80001048:	10079073          	csrrw	x0,sstatus,x15
    8000104c:	59c010ef          	jal	x1,800025e8 <mycpu>
    80001050:	07852783          	lw	x15,120(x10)
    80001054:	02078463          	beq	x15,x0,8000107c <push_off+0x58>
    80001058:	590010ef          	jal	x1,800025e8 <mycpu>
    8000105c:	07852783          	lw	x15,120(x10)
    80001060:	0017879b          	addiw	x15,x15,1
    80001064:	06f52c23          	sw	x15,120(x10)
    80001068:	01813083          	ld	x1,24(x2)
    8000106c:	01013403          	ld	x8,16(x2)
    80001070:	00813483          	ld	x9,8(x2)
    80001074:	02010113          	addi	x2,x2,32
    80001078:	00008067          	jalr	x0,0(x1)
    8000107c:	56c010ef          	jal	x1,800025e8 <mycpu>
    80001080:	0014d793          	srli	x15,x9,0x1
    80001084:	0017f793          	andi	x15,x15,1
    80001088:	06f52e23          	sw	x15,124(x10)
    8000108c:	fcdff06f          	jal	x0,80001058 <push_off+0x34>

0000000080001090 <acquire>:
    80001090:	fe010113          	addi	x2,x2,-32
    80001094:	00113c23          	sd	x1,24(x2)
    80001098:	00813823          	sd	x8,16(x2)
    8000109c:	00913423          	sd	x9,8(x2)
    800010a0:	02010413          	addi	x8,x2,32
    800010a4:	00050493          	addi	x9,x10,0
    800010a8:	f7dff0ef          	jal	x1,80001024 <push_off>
    800010ac:	00048513          	addi	x10,x9,0
    800010b0:	f29ff0ef          	jal	x1,80000fd8 <holding>
    800010b4:	00100713          	addi	x14,x0,1
    800010b8:	02051a63          	bne	x10,x0,800010ec <acquire+0x5c>
    800010bc:	00070793          	addi	x15,x14,0
    800010c0:	0cf4a7af          	amoswap.w.aq	x15,x15,(x9)
    800010c4:	0007879b          	addiw	x15,x15,0
    800010c8:	fe079ae3          	bne	x15,x0,800010bc <acquire+0x2c>
    800010cc:	0330000f          	fence	rw,rw
    800010d0:	518010ef          	jal	x1,800025e8 <mycpu>
    800010d4:	00a4b823          	sd	x10,16(x9)
    800010d8:	01813083          	ld	x1,24(x2)
    800010dc:	01013403          	ld	x8,16(x2)
    800010e0:	00813483          	ld	x9,8(x2)
    800010e4:	02010113          	addi	x2,x2,32
    800010e8:	00008067          	jalr	x0,0(x1)
    800010ec:	00008517          	auipc	x10,0x8
    800010f0:	f7450513          	addi	x10,x10,-140 # 80009060 <etext+0x60>
    800010f4:	9f9ff0ef          	jal	x1,80000aec <panic>

00000000800010f8 <pop_off>:
    800010f8:	ff010113          	addi	x2,x2,-16
    800010fc:	00113423          	sd	x1,8(x2)
    80001100:	00813023          	sd	x8,0(x2)
    80001104:	01010413          	addi	x8,x2,16
    80001108:	4e0010ef          	jal	x1,800025e8 <mycpu>
    8000110c:	100027f3          	csrrs	x15,sstatus,x0
    80001110:	0027f793          	andi	x15,x15,2
    80001114:	02079e63          	bne	x15,x0,80001150 <pop_off+0x58>
    80001118:	07852783          	lw	x15,120(x10)
    8000111c:	04f05063          	bge	x0,x15,8000115c <pop_off+0x64>
    80001120:	fff7879b          	addiw	x15,x15,-1
    80001124:	06f52c23          	sw	x15,120(x10)
    80001128:	00079c63          	bne	x15,x0,80001140 <pop_off+0x48>
    8000112c:	07c52783          	lw	x15,124(x10)
    80001130:	00078863          	beq	x15,x0,80001140 <pop_off+0x48>
    80001134:	100027f3          	csrrs	x15,sstatus,x0
    80001138:	0027e793          	ori	x15,x15,2
    8000113c:	10079073          	csrrw	x0,sstatus,x15
    80001140:	00813083          	ld	x1,8(x2)
    80001144:	00013403          	ld	x8,0(x2)
    80001148:	01010113          	addi	x2,x2,16
    8000114c:	00008067          	jalr	x0,0(x1)
    80001150:	00008517          	auipc	x10,0x8
    80001154:	f1850513          	addi	x10,x10,-232 # 80009068 <etext+0x68>
    80001158:	995ff0ef          	jal	x1,80000aec <panic>
    8000115c:	00008517          	auipc	x10,0x8
    80001160:	f2450513          	addi	x10,x10,-220 # 80009080 <etext+0x80>
    80001164:	989ff0ef          	jal	x1,80000aec <panic>

0000000080001168 <release>:
    80001168:	fc010113          	addi	x2,x2,-64
    8000116c:	02113c23          	sd	x1,56(x2)
    80001170:	02813823          	sd	x8,48(x2)
    80001174:	02913423          	sd	x9,40(x2)
    80001178:	04010413          	addi	x8,x2,64
    8000117c:	00050493          	addi	x9,x10,0
    80001180:	e59ff0ef          	jal	x1,80000fd8 <holding>
    80001184:	02050663          	beq	x10,x0,800011b0 <release+0x48>
    80001188:	0004b823          	sd	x0,16(x9)
    8000118c:	0330000f          	fence	rw,rw
    80001190:	0310000f          	fence	rw,w
    80001194:	0004a023          	sw	x0,0(x9)
    80001198:	f61ff0ef          	jal	x1,800010f8 <pop_off>
    8000119c:	03813083          	ld	x1,56(x2)
    800011a0:	03013403          	ld	x8,48(x2)
    800011a4:	02813483          	ld	x9,40(x2)
    800011a8:	04010113          	addi	x2,x2,64
    800011ac:	00008067          	jalr	x0,0(x1)
    800011b0:	03213023          	sd	x18,32(x2)
    800011b4:	01313c23          	sd	x19,24(x2)
    800011b8:	01413823          	sd	x20,16(x2)
    800011bc:	01513423          	sd	x21,8(x2)
    800011c0:	0084b783          	ld	x15,8(x9)
    800011c4:	00078993          	addi	x19,x15,0
    800011c8:	04078a63          	beq	x15,x0,8000121c <release+0xb4>
    800011cc:	0004a783          	lw	x15,0(x9)
    800011d0:	00078a13          	addi	x20,x15,0
    800011d4:	0104b783          	ld	x15,16(x9)
    800011d8:	00078a93          	addi	x21,x15,0
    800011dc:	40c010ef          	jal	x1,800025e8 <mycpu>
    800011e0:	00050913          	addi	x18,x10,0
    800011e4:	3dc010ef          	jal	x1,800025c0 <cpuid>
    800011e8:	00050813          	addi	x16,x10,0
    800011ec:	00020893          	addi	x17,x4,0 # 0 <_binary_fs_img_size-0x1f4000>
    800011f0:	00090793          	addi	x15,x18,0
    800011f4:	000a8713          	addi	x14,x21,0 # 2000 <_binary_fs_img_size-0x1f2000>
    800011f8:	000a0693          	addi	x13,x20,0
    800011fc:	00098613          	addi	x12,x19,0
    80001200:	00048593          	addi	x11,x9,0
    80001204:	00008517          	auipc	x10,0x8
    80001208:	e8450513          	addi	x10,x10,-380 # 80009088 <etext+0x88>
    8000120c:	cc0ff0ef          	jal	x1,800006cc <printf>
    80001210:	00008517          	auipc	x10,0x8
    80001214:	ec850513          	addi	x10,x10,-312 # 800090d8 <etext+0xd8>
    80001218:	8d5ff0ef          	jal	x1,80000aec <panic>
    8000121c:	00008797          	auipc	x15,0x8
    80001220:	dec78793          	addi	x15,x15,-532 # 80009008 <etext+0x8>
    80001224:	00078993          	addi	x19,x15,0
    80001228:	fa5ff06f          	jal	x0,800011cc <release+0x64>

000000008000122c <memset>:
    8000122c:	ff010113          	addi	x2,x2,-16
    80001230:	00113423          	sd	x1,8(x2)
    80001234:	00813023          	sd	x8,0(x2)
    80001238:	01010413          	addi	x8,x2,16
    8000123c:	02060063          	beq	x12,x0,8000125c <memset+0x30>
    80001240:	00050793          	addi	x15,x10,0
    80001244:	02061613          	slli	x12,x12,0x20
    80001248:	02065613          	srli	x12,x12,0x20
    8000124c:	00a60733          	add	x14,x12,x10
    80001250:	00b78023          	sb	x11,0(x15)
    80001254:	00178793          	addi	x15,x15,1
    80001258:	fee79ce3          	bne	x15,x14,80001250 <memset+0x24>
    8000125c:	00813083          	ld	x1,8(x2)
    80001260:	00013403          	ld	x8,0(x2)
    80001264:	01010113          	addi	x2,x2,16
    80001268:	00008067          	jalr	x0,0(x1)

000000008000126c <memcmp>:
    8000126c:	ff010113          	addi	x2,x2,-16
    80001270:	00113423          	sd	x1,8(x2)
    80001274:	00813023          	sd	x8,0(x2)
    80001278:	01010413          	addi	x8,x2,16
    8000127c:	04060263          	beq	x12,x0,800012c0 <memcmp+0x54>
    80001280:	02061613          	slli	x12,x12,0x20
    80001284:	02065613          	srli	x12,x12,0x20
    80001288:	00c506b3          	add	x13,x10,x12
    8000128c:	00054783          	lbu	x15,0(x10)
    80001290:	0005c703          	lbu	x14,0(x11)
    80001294:	00e79c63          	bne	x15,x14,800012ac <memcmp+0x40>
    80001298:	00150513          	addi	x10,x10,1
    8000129c:	00158593          	addi	x11,x11,1
    800012a0:	fed516e3          	bne	x10,x13,8000128c <memcmp+0x20>
    800012a4:	00000513          	addi	x10,x0,0
    800012a8:	0080006f          	jal	x0,800012b0 <memcmp+0x44>
    800012ac:	40e7853b          	subw	x10,x15,x14
    800012b0:	00813083          	ld	x1,8(x2)
    800012b4:	00013403          	ld	x8,0(x2)
    800012b8:	01010113          	addi	x2,x2,16
    800012bc:	00008067          	jalr	x0,0(x1)
    800012c0:	00000513          	addi	x10,x0,0
    800012c4:	fedff06f          	jal	x0,800012b0 <memcmp+0x44>

00000000800012c8 <memmove>:
    800012c8:	ff010113          	addi	x2,x2,-16
    800012cc:	00113423          	sd	x1,8(x2)
    800012d0:	00813023          	sd	x8,0(x2)
    800012d4:	01010413          	addi	x8,x2,16
    800012d8:	02060663          	beq	x12,x0,80001304 <memmove+0x3c>
    800012dc:	02a5ec63          	bltu	x11,x10,80001314 <memmove+0x4c>
    800012e0:	02061613          	slli	x12,x12,0x20
    800012e4:	02065613          	srli	x12,x12,0x20
    800012e8:	00c587b3          	add	x15,x11,x12
    800012ec:	00050713          	addi	x14,x10,0
    800012f0:	00158593          	addi	x11,x11,1
    800012f4:	00170713          	addi	x14,x14,1
    800012f8:	fff5c683          	lbu	x13,-1(x11)
    800012fc:	fed70fa3          	sb	x13,-1(x14)
    80001300:	feb798e3          	bne	x15,x11,800012f0 <memmove+0x28>
    80001304:	00813083          	ld	x1,8(x2)
    80001308:	00013403          	ld	x8,0(x2)
    8000130c:	01010113          	addi	x2,x2,16
    80001310:	00008067          	jalr	x0,0(x1)
    80001314:	02061693          	slli	x13,x12,0x20
    80001318:	0206d693          	srli	x13,x13,0x20
    8000131c:	00d58733          	add	x14,x11,x13
    80001320:	fce570e3          	bgeu	x10,x14,800012e0 <memmove+0x18>
    80001324:	00d506b3          	add	x13,x10,x13
    80001328:	fff6079b          	addiw	x15,x12,-1 # fff <_binary_fs_img_size-0x1f3001>
    8000132c:	02079793          	slli	x15,x15,0x20
    80001330:	0207d793          	srli	x15,x15,0x20
    80001334:	fff7c793          	xori	x15,x15,-1
    80001338:	00f707b3          	add	x15,x14,x15
    8000133c:	fff70713          	addi	x14,x14,-1
    80001340:	fff68693          	addi	x13,x13,-1
    80001344:	00074603          	lbu	x12,0(x14)
    80001348:	00c68023          	sb	x12,0(x13)
    8000134c:	fee798e3          	bne	x15,x14,8000133c <memmove+0x74>
    80001350:	fb5ff06f          	jal	x0,80001304 <memmove+0x3c>

0000000080001354 <memcpy>:
    80001354:	ff010113          	addi	x2,x2,-16
    80001358:	00113423          	sd	x1,8(x2)
    8000135c:	00813023          	sd	x8,0(x2)
    80001360:	01010413          	addi	x8,x2,16
    80001364:	f65ff0ef          	jal	x1,800012c8 <memmove>
    80001368:	00813083          	ld	x1,8(x2)
    8000136c:	00013403          	ld	x8,0(x2)
    80001370:	01010113          	addi	x2,x2,16
    80001374:	00008067          	jalr	x0,0(x1)

0000000080001378 <strncmp>:
    80001378:	ff010113          	addi	x2,x2,-16
    8000137c:	00113423          	sd	x1,8(x2)
    80001380:	00813023          	sd	x8,0(x2)
    80001384:	01010413          	addi	x8,x2,16
    80001388:	02060663          	beq	x12,x0,800013b4 <strncmp+0x3c>
    8000138c:	00054783          	lbu	x15,0(x10)
    80001390:	02078663          	beq	x15,x0,800013bc <strncmp+0x44>
    80001394:	0005c703          	lbu	x14,0(x11)
    80001398:	02f71263          	bne	x14,x15,800013bc <strncmp+0x44>
    8000139c:	fff6061b          	addiw	x12,x12,-1
    800013a0:	00150513          	addi	x10,x10,1
    800013a4:	00158593          	addi	x11,x11,1
    800013a8:	fe0612e3          	bne	x12,x0,8000138c <strncmp+0x14>
    800013ac:	00000513          	addi	x10,x0,0
    800013b0:	0180006f          	jal	x0,800013c8 <strncmp+0x50>
    800013b4:	00000513          	addi	x10,x0,0
    800013b8:	0100006f          	jal	x0,800013c8 <strncmp+0x50>
    800013bc:	00054503          	lbu	x10,0(x10)
    800013c0:	0005c783          	lbu	x15,0(x11)
    800013c4:	40f5053b          	subw	x10,x10,x15
    800013c8:	00813083          	ld	x1,8(x2)
    800013cc:	00013403          	ld	x8,0(x2)
    800013d0:	01010113          	addi	x2,x2,16
    800013d4:	00008067          	jalr	x0,0(x1)

00000000800013d8 <strncpy>:
    800013d8:	ff010113          	addi	x2,x2,-16
    800013dc:	00113423          	sd	x1,8(x2)
    800013e0:	00813023          	sd	x8,0(x2)
    800013e4:	01010413          	addi	x8,x2,16
    800013e8:	00050793          	addi	x15,x10,0
    800013ec:	0080006f          	jal	x0,800013f4 <strncpy+0x1c>
    800013f0:	00068613          	addi	x12,x13,0
    800013f4:	04c05063          	bge	x0,x12,80001434 <strncpy+0x5c>
    800013f8:	fff6069b          	addiw	x13,x12,-1
    800013fc:	00068813          	addi	x16,x13,0
    80001400:	00178793          	addi	x15,x15,1
    80001404:	0005c703          	lbu	x14,0(x11)
    80001408:	fee78fa3          	sb	x14,-1(x15)
    8000140c:	00158593          	addi	x11,x11,1
    80001410:	fe0710e3          	bne	x14,x0,800013f0 <strncpy+0x18>
    80001414:	00078713          	addi	x14,x15,0
    80001418:	01005e63          	bge	x0,x16,80001434 <strncpy+0x5c>
    8000141c:	00c787bb          	addw	x15,x15,x12
    80001420:	fff7879b          	addiw	x15,x15,-1
    80001424:	00170713          	addi	x14,x14,1
    80001428:	fe070fa3          	sb	x0,-1(x14)
    8000142c:	40e786bb          	subw	x13,x15,x14
    80001430:	fed04ae3          	blt	x0,x13,80001424 <strncpy+0x4c>
    80001434:	00813083          	ld	x1,8(x2)
    80001438:	00013403          	ld	x8,0(x2)
    8000143c:	01010113          	addi	x2,x2,16
    80001440:	00008067          	jalr	x0,0(x1)

0000000080001444 <safestrcpy>:
    80001444:	ff010113          	addi	x2,x2,-16
    80001448:	00113423          	sd	x1,8(x2)
    8000144c:	00813023          	sd	x8,0(x2)
    80001450:	01010413          	addi	x8,x2,16
    80001454:	02c05a63          	bge	x0,x12,80001488 <safestrcpy+0x44>
    80001458:	fff6069b          	addiw	x13,x12,-1
    8000145c:	02069693          	slli	x13,x13,0x20
    80001460:	0206d693          	srli	x13,x13,0x20
    80001464:	00d586b3          	add	x13,x11,x13
    80001468:	00050793          	addi	x15,x10,0
    8000146c:	00d58c63          	beq	x11,x13,80001484 <safestrcpy+0x40>
    80001470:	00158593          	addi	x11,x11,1
    80001474:	00178793          	addi	x15,x15,1
    80001478:	fff5c703          	lbu	x14,-1(x11)
    8000147c:	fee78fa3          	sb	x14,-1(x15)
    80001480:	fe0716e3          	bne	x14,x0,8000146c <safestrcpy+0x28>
    80001484:	00078023          	sb	x0,0(x15)
    80001488:	00813083          	ld	x1,8(x2)
    8000148c:	00013403          	ld	x8,0(x2)
    80001490:	01010113          	addi	x2,x2,16
    80001494:	00008067          	jalr	x0,0(x1)

0000000080001498 <strlen>:
    80001498:	ff010113          	addi	x2,x2,-16
    8000149c:	00113423          	sd	x1,8(x2)
    800014a0:	00813023          	sd	x8,0(x2)
    800014a4:	01010413          	addi	x8,x2,16
    800014a8:	00054783          	lbu	x15,0(x10)
    800014ac:	02078663          	beq	x15,x0,800014d8 <strlen+0x40>
    800014b0:	00150793          	addi	x15,x10,1
    800014b4:	00078693          	addi	x13,x15,0
    800014b8:	00178793          	addi	x15,x15,1
    800014bc:	fff7c703          	lbu	x14,-1(x15)
    800014c0:	fe071ae3          	bne	x14,x0,800014b4 <strlen+0x1c>
    800014c4:	40a6853b          	subw	x10,x13,x10
    800014c8:	00813083          	ld	x1,8(x2)
    800014cc:	00013403          	ld	x8,0(x2)
    800014d0:	01010113          	addi	x2,x2,16
    800014d4:	00008067          	jalr	x0,0(x1)
    800014d8:	00000513          	addi	x10,x0,0
    800014dc:	fedff06f          	jal	x0,800014c8 <strlen+0x30>

00000000800014e0 <main>:
    800014e0:	ff010113          	addi	x2,x2,-16
    800014e4:	00113423          	sd	x1,8(x2)
    800014e8:	00813023          	sd	x8,0(x2)
    800014ec:	01010413          	addi	x8,x2,16
    800014f0:	0d0010ef          	jal	x1,800025c0 <cpuid>
    800014f4:	001fc717          	auipc	x14,0x1fc
    800014f8:	4b870713          	addi	x14,x14,1208 # 801fd9ac <started>
    800014fc:	04050263          	beq	x10,x0,80001540 <main+0x60>
    80001500:	00072783          	lw	x15,0(x14)
    80001504:	0007879b          	addiw	x15,x15,0
    80001508:	fe078ce3          	beq	x15,x0,80001500 <main+0x20>
    8000150c:	0330000f          	fence	rw,rw
    80001510:	0b0010ef          	jal	x1,800025c0 <cpuid>
    80001514:	00050593          	addi	x11,x10,0
    80001518:	00008517          	auipc	x10,0x8
    8000151c:	d5050513          	addi	x10,x10,-688 # 80009268 <etext+0x268>
    80001520:	9acff0ef          	jal	x1,800006cc <printf>
    80001524:	12c000ef          	jal	x1,80001650 <kvminithart>
    80001528:	14c020ef          	jal	x1,80003674 <trapinithart>
    8000152c:	794060ef          	jal	x1,80007cc0 <plicinithart>
    80001530:	00008517          	auipc	x10,0x8
    80001534:	d5050513          	addi	x10,x10,-688 # 80009280 <etext+0x280>
    80001538:	994ff0ef          	jal	x1,800006cc <printf>
    8000153c:	77c010ef          	jal	x1,80002cb8 <scheduler>
    80001540:	864ff0ef          	jal	x1,800005a4 <consoleinit>
    80001544:	df8ff0ef          	jal	x1,80000b3c <printfinit>
    80001548:	00008517          	auipc	x10,0x8
    8000154c:	b9850513          	addi	x10,x10,-1128 # 800090e0 <etext+0xe0>
    80001550:	97cff0ef          	jal	x1,800006cc <printf>
    80001554:	00008517          	auipc	x10,0x8
    80001558:	b9450513          	addi	x10,x10,-1132 # 800090e8 <etext+0xe8>
    8000155c:	970ff0ef          	jal	x1,800006cc <printf>
    80001560:	00008517          	auipc	x10,0x8
    80001564:	b8050513          	addi	x10,x10,-1152 # 800090e0 <etext+0xe0>
    80001568:	964ff0ef          	jal	x1,800006cc <printf>
    8000156c:	97dff0ef          	jal	x1,80000ee8 <kinit>
    80001570:	00008517          	auipc	x10,0x8
    80001574:	ba050513          	addi	x10,x10,-1120 # 80009110 <etext+0x110>
    80001578:	954ff0ef          	jal	x1,800006cc <printf>
    8000157c:	4b8000ef          	jal	x1,80001a34 <kvminit>
    80001580:	00008517          	auipc	x10,0x8
    80001584:	ba850513          	addi	x10,x10,-1112 # 80009128 <etext+0x128>
    80001588:	944ff0ef          	jal	x1,800006cc <printf>
    8000158c:	0c4000ef          	jal	x1,80001650 <kvminithart>
    80001590:	00008517          	auipc	x10,0x8
    80001594:	bb050513          	addi	x10,x10,-1104 # 80009140 <etext+0x140>
    80001598:	934ff0ef          	jal	x1,800006cc <printf>
    8000159c:	72d000ef          	jal	x1,800024c8 <procinit>
    800015a0:	00008517          	auipc	x10,0x8
    800015a4:	bc050513          	addi	x10,x10,-1088 # 80009160 <etext+0x160>
    800015a8:	924ff0ef          	jal	x1,800006cc <printf>
    800015ac:	094020ef          	jal	x1,80003640 <trapinit>
    800015b0:	00008517          	auipc	x10,0x8
    800015b4:	bc850513          	addi	x10,x10,-1080 # 80009178 <etext+0x178>
    800015b8:	914ff0ef          	jal	x1,800006cc <printf>
    800015bc:	0b8020ef          	jal	x1,80003674 <trapinithart>
    800015c0:	00008517          	auipc	x10,0x8
    800015c4:	bd050513          	addi	x10,x10,-1072 # 80009190 <etext+0x190>
    800015c8:	904ff0ef          	jal	x1,800006cc <printf>
    800015cc:	6c4060ef          	jal	x1,80007c90 <plicinit>
    800015d0:	00008517          	auipc	x10,0x8
    800015d4:	be050513          	addi	x10,x10,-1056 # 800091b0 <etext+0x1b0>
    800015d8:	8f4ff0ef          	jal	x1,800006cc <printf>
    800015dc:	6e4060ef          	jal	x1,80007cc0 <plicinithart>
    800015e0:	00008517          	auipc	x10,0x8
    800015e4:	be850513          	addi	x10,x10,-1048 # 800091c8 <etext+0x1c8>
    800015e8:	8e4ff0ef          	jal	x1,800006cc <printf>
    800015ec:	255020ef          	jal	x1,80004040 <binit>
    800015f0:	00008517          	auipc	x10,0x8
    800015f4:	bf850513          	addi	x10,x10,-1032 # 800091e8 <etext+0x1e8>
    800015f8:	8d4ff0ef          	jal	x1,800006cc <printf>
    800015fc:	1dc030ef          	jal	x1,800047d8 <iinit>
    80001600:	00008517          	auipc	x10,0x8
    80001604:	c0050513          	addi	x10,x10,-1024 # 80009200 <etext+0x200>
    80001608:	8c4ff0ef          	jal	x1,800006cc <printf>
    8000160c:	079040ef          	jal	x1,80005e84 <fileinit>
    80001610:	00008517          	auipc	x10,0x8
    80001614:	c0850513          	addi	x10,x10,-1016 # 80009218 <etext+0x218>
    80001618:	8b4ff0ef          	jal	x1,800006cc <printf>
    8000161c:	760060ef          	jal	x1,80007d7c <virtio_disk_init>
    80001620:	00008517          	auipc	x10,0x8
    80001624:	c1050513          	addi	x10,x10,-1008 # 80009230 <etext+0x230>
    80001628:	8a4ff0ef          	jal	x1,800006cc <printf>
    8000162c:	428010ef          	jal	x1,80002a54 <userinit>
    80001630:	00008517          	auipc	x10,0x8
    80001634:	c2050513          	addi	x10,x10,-992 # 80009250 <etext+0x250>
    80001638:	894ff0ef          	jal	x1,800006cc <printf>
    8000163c:	0330000f          	fence	rw,rw
    80001640:	00100793          	addi	x15,x0,1
    80001644:	001fc717          	auipc	x14,0x1fc
    80001648:	36f72423          	sw	x15,872(x14) # 801fd9ac <started>
    8000164c:	ee5ff06f          	jal	x0,80001530 <main+0x50>

0000000080001650 <kvminithart>:
    80001650:	ff010113          	addi	x2,x2,-16
    80001654:	00113423          	sd	x1,8(x2)
    80001658:	00813023          	sd	x8,0(x2)
    8000165c:	01010413          	addi	x8,x2,16
    80001660:	12000073          	sfence.vma	x0,x0
    80001664:	001fc797          	auipc	x15,0x1fc
    80001668:	34c7b783          	ld	x15,844(x15) # 801fd9b0 <kernel_pagetable>
    8000166c:	00c7d793          	srli	x15,x15,0xc
    80001670:	fff00713          	addi	x14,x0,-1
    80001674:	03f71713          	slli	x14,x14,0x3f
    80001678:	00e7e7b3          	or	x15,x15,x14
    8000167c:	18079073          	csrrw	x0,satp,x15
    80001680:	12000073          	sfence.vma	x0,x0
    80001684:	00813083          	ld	x1,8(x2)
    80001688:	00013403          	ld	x8,0(x2)
    8000168c:	01010113          	addi	x2,x2,16
    80001690:	00008067          	jalr	x0,0(x1)

0000000080001694 <walk>:
    80001694:	fc010113          	addi	x2,x2,-64
    80001698:	02113c23          	sd	x1,56(x2)
    8000169c:	02813823          	sd	x8,48(x2)
    800016a0:	02913423          	sd	x9,40(x2)
    800016a4:	03213023          	sd	x18,32(x2)
    800016a8:	01313c23          	sd	x19,24(x2)
    800016ac:	01413823          	sd	x20,16(x2)
    800016b0:	01513423          	sd	x21,8(x2)
    800016b4:	01613023          	sd	x22,0(x2)
    800016b8:	04010413          	addi	x8,x2,64
    800016bc:	00050493          	addi	x9,x10,0
    800016c0:	00058993          	addi	x19,x11,0
    800016c4:	00060b13          	addi	x22,x12,0
    800016c8:	fff00793          	addi	x15,x0,-1
    800016cc:	01a7d793          	srli	x15,x15,0x1a
    800016d0:	01e00a13          	addi	x20,x0,30
    800016d4:	00c00a93          	addi	x21,x0,12
    800016d8:	06b7e463          	bltu	x15,x11,80001740 <walk+0xac>
    800016dc:	0149d933          	srl	x18,x19,x20
    800016e0:	1ff97913          	andi	x18,x18,511
    800016e4:	00391913          	slli	x18,x18,0x3
    800016e8:	01248933          	add	x18,x9,x18
    800016ec:	00093483          	ld	x9,0(x18)
    800016f0:	0014f793          	andi	x15,x9,1
    800016f4:	04078c63          	beq	x15,x0,8000174c <walk+0xb8>
    800016f8:	00a4d493          	srli	x9,x9,0xa
    800016fc:	00c49493          	slli	x9,x9,0xc
    80001700:	ff7a0a1b          	addiw	x20,x20,-9
    80001704:	fd5a1ce3          	bne	x20,x21,800016dc <walk+0x48>
    80001708:	00c9d513          	srli	x10,x19,0xc
    8000170c:	1ff57513          	andi	x10,x10,511
    80001710:	00351513          	slli	x10,x10,0x3
    80001714:	00a48533          	add	x10,x9,x10
    80001718:	03813083          	ld	x1,56(x2)
    8000171c:	03013403          	ld	x8,48(x2)
    80001720:	02813483          	ld	x9,40(x2)
    80001724:	02013903          	ld	x18,32(x2)
    80001728:	01813983          	ld	x19,24(x2)
    8000172c:	01013a03          	ld	x20,16(x2)
    80001730:	00813a83          	ld	x21,8(x2)
    80001734:	00013b03          	ld	x22,0(x2)
    80001738:	04010113          	addi	x2,x2,64
    8000173c:	00008067          	jalr	x0,0(x1)
    80001740:	00008517          	auipc	x10,0x8
    80001744:	b8050513          	addi	x10,x10,-1152 # 800092c0 <etext+0x2c0>
    80001748:	ba4ff0ef          	jal	x1,80000aec <panic>
    8000174c:	020b0863          	beq	x22,x0,8000177c <walk+0xe8>
    80001750:	fe0ff0ef          	jal	x1,80000f30 <kalloc>
    80001754:	00050493          	addi	x9,x10,0
    80001758:	fc0500e3          	beq	x10,x0,80001718 <walk+0x84>
    8000175c:	00001637          	lui	x12,0x1
    80001760:	00000593          	addi	x11,x0,0
    80001764:	ac9ff0ef          	jal	x1,8000122c <memset>
    80001768:	00c4d793          	srli	x15,x9,0xc
    8000176c:	00a79793          	slli	x15,x15,0xa
    80001770:	0017e793          	ori	x15,x15,1
    80001774:	00f93023          	sd	x15,0(x18)
    80001778:	f89ff06f          	jal	x0,80001700 <walk+0x6c>
    8000177c:	00000513          	addi	x10,x0,0
    80001780:	f99ff06f          	jal	x0,80001718 <walk+0x84>

0000000080001784 <walkaddr>:
    80001784:	fff00793          	addi	x15,x0,-1
    80001788:	01a7d793          	srli	x15,x15,0x1a
    8000178c:	00b7f663          	bgeu	x15,x11,80001798 <walkaddr+0x14>
    80001790:	00000513          	addi	x10,x0,0
    80001794:	00008067          	jalr	x0,0(x1)
    80001798:	ff010113          	addi	x2,x2,-16
    8000179c:	00113423          	sd	x1,8(x2)
    800017a0:	00813023          	sd	x8,0(x2)
    800017a4:	01010413          	addi	x8,x2,16
    800017a8:	00000613          	addi	x12,x0,0
    800017ac:	ee9ff0ef          	jal	x1,80001694 <walk>
    800017b0:	00050c63          	beq	x10,x0,800017c8 <walkaddr+0x44>
    800017b4:	00053783          	ld	x15,0(x10)
    800017b8:	0117f693          	andi	x13,x15,17
    800017bc:	01100713          	addi	x14,x0,17
    800017c0:	00000513          	addi	x10,x0,0
    800017c4:	00e68a63          	beq	x13,x14,800017d8 <walkaddr+0x54>
    800017c8:	00813083          	ld	x1,8(x2)
    800017cc:	00013403          	ld	x8,0(x2)
    800017d0:	01010113          	addi	x2,x2,16
    800017d4:	00008067          	jalr	x0,0(x1)
    800017d8:	00a7d793          	srli	x15,x15,0xa
    800017dc:	00c79513          	slli	x10,x15,0xc
    800017e0:	fe9ff06f          	jal	x0,800017c8 <walkaddr+0x44>

00000000800017e4 <mappages>:
    800017e4:	fb010113          	addi	x2,x2,-80
    800017e8:	04113423          	sd	x1,72(x2)
    800017ec:	04813023          	sd	x8,64(x2)
    800017f0:	02913c23          	sd	x9,56(x2)
    800017f4:	03213823          	sd	x18,48(x2)
    800017f8:	03313423          	sd	x19,40(x2)
    800017fc:	03413023          	sd	x20,32(x2)
    80001800:	01513c23          	sd	x21,24(x2)
    80001804:	01613823          	sd	x22,16(x2)
    80001808:	01713423          	sd	x23,8(x2)
    8000180c:	05010413          	addi	x8,x2,80
    80001810:	03459793          	slli	x15,x11,0x34
    80001814:	06079c63          	bne	x15,x0,8000188c <mappages+0xa8>
    80001818:	00050a13          	addi	x20,x10,0
    8000181c:	00070a93          	addi	x21,x14,0
    80001820:	03461793          	slli	x15,x12,0x34
    80001824:	06079a63          	bne	x15,x0,80001898 <mappages+0xb4>
    80001828:	06060e63          	beq	x12,x0,800018a4 <mappages+0xc0>
    8000182c:	80060613          	addi	x12,x12,-2048 # 800 <_binary_fs_img_size-0x1f3800>
    80001830:	80060613          	addi	x12,x12,-2048
    80001834:	00b60933          	add	x18,x12,x11
    80001838:	00058493          	addi	x9,x11,0
    8000183c:	00100b13          	addi	x22,x0,1
    80001840:	40b689b3          	sub	x19,x13,x11
    80001844:	00001bb7          	lui	x23,0x1
    80001848:	000b0613          	addi	x12,x22,0 # 1000 <_binary_fs_img_size-0x1f3000>
    8000184c:	00048593          	addi	x11,x9,0
    80001850:	000a0513          	addi	x10,x20,0
    80001854:	e41ff0ef          	jal	x1,80001694 <walk>
    80001858:	06050263          	beq	x10,x0,800018bc <mappages+0xd8>
    8000185c:	00053783          	ld	x15,0(x10)
    80001860:	0017f793          	andi	x15,x15,1
    80001864:	04079663          	bne	x15,x0,800018b0 <mappages+0xcc>
    80001868:	013487b3          	add	x15,x9,x19
    8000186c:	00c7d793          	srli	x15,x15,0xc
    80001870:	00a79793          	slli	x15,x15,0xa
    80001874:	0157e7b3          	or	x15,x15,x21
    80001878:	0017e793          	ori	x15,x15,1
    8000187c:	00f53023          	sd	x15,0(x10)
    80001880:	07248663          	beq	x9,x18,800018ec <mappages+0x108>
    80001884:	017484b3          	add	x9,x9,x23
    80001888:	fc1ff06f          	jal	x0,80001848 <mappages+0x64>
    8000188c:	00008517          	auipc	x10,0x8
    80001890:	a3c50513          	addi	x10,x10,-1476 # 800092c8 <etext+0x2c8>
    80001894:	a58ff0ef          	jal	x1,80000aec <panic>
    80001898:	00008517          	auipc	x10,0x8
    8000189c:	a5050513          	addi	x10,x10,-1456 # 800092e8 <etext+0x2e8>
    800018a0:	a4cff0ef          	jal	x1,80000aec <panic>
    800018a4:	00008517          	auipc	x10,0x8
    800018a8:	a6450513          	addi	x10,x10,-1436 # 80009308 <etext+0x308>
    800018ac:	a40ff0ef          	jal	x1,80000aec <panic>
    800018b0:	00008517          	auipc	x10,0x8
    800018b4:	a6850513          	addi	x10,x10,-1432 # 80009318 <etext+0x318>
    800018b8:	a34ff0ef          	jal	x1,80000aec <panic>
    800018bc:	fff00513          	addi	x10,x0,-1
    800018c0:	04813083          	ld	x1,72(x2)
    800018c4:	04013403          	ld	x8,64(x2)
    800018c8:	03813483          	ld	x9,56(x2)
    800018cc:	03013903          	ld	x18,48(x2)
    800018d0:	02813983          	ld	x19,40(x2)
    800018d4:	02013a03          	ld	x20,32(x2)
    800018d8:	01813a83          	ld	x21,24(x2)
    800018dc:	01013b03          	ld	x22,16(x2)
    800018e0:	00813b83          	ld	x23,8(x2)
    800018e4:	05010113          	addi	x2,x2,80
    800018e8:	00008067          	jalr	x0,0(x1)
    800018ec:	00000513          	addi	x10,x0,0
    800018f0:	fd1ff06f          	jal	x0,800018c0 <mappages+0xdc>

00000000800018f4 <kvmmap>:
    800018f4:	ff010113          	addi	x2,x2,-16
    800018f8:	00113423          	sd	x1,8(x2)
    800018fc:	00813023          	sd	x8,0(x2)
    80001900:	01010413          	addi	x8,x2,16
    80001904:	00068793          	addi	x15,x13,0
    80001908:	00060693          	addi	x13,x12,0
    8000190c:	00078613          	addi	x12,x15,0
    80001910:	ed5ff0ef          	jal	x1,800017e4 <mappages>
    80001914:	00051a63          	bne	x10,x0,80001928 <kvmmap+0x34>
    80001918:	00813083          	ld	x1,8(x2)
    8000191c:	00013403          	ld	x8,0(x2)
    80001920:	01010113          	addi	x2,x2,16
    80001924:	00008067          	jalr	x0,0(x1)
    80001928:	00008517          	auipc	x10,0x8
    8000192c:	a0050513          	addi	x10,x10,-1536 # 80009328 <etext+0x328>
    80001930:	9bcff0ef          	jal	x1,80000aec <panic>

0000000080001934 <kvmmake>:
    80001934:	fe010113          	addi	x2,x2,-32
    80001938:	00113c23          	sd	x1,24(x2)
    8000193c:	00813823          	sd	x8,16(x2)
    80001940:	00913423          	sd	x9,8(x2)
    80001944:	02010413          	addi	x8,x2,32
    80001948:	de8ff0ef          	jal	x1,80000f30 <kalloc>
    8000194c:	00050493          	addi	x9,x10,0
    80001950:	00001637          	lui	x12,0x1
    80001954:	00000593          	addi	x11,x0,0
    80001958:	8d5ff0ef          	jal	x1,8000122c <memset>
    8000195c:	00600713          	addi	x14,x0,6
    80001960:	000016b7          	lui	x13,0x1
    80001964:	10000637          	lui	x12,0x10000
    80001968:	00060593          	addi	x11,x12,0 # 10000000 <_binary_fs_img_size+0xfe0c000>
    8000196c:	00048513          	addi	x10,x9,0
    80001970:	f85ff0ef          	jal	x1,800018f4 <kvmmap>
    80001974:	00600713          	addi	x14,x0,6
    80001978:	000016b7          	lui	x13,0x1
    8000197c:	10001637          	lui	x12,0x10001
    80001980:	00060593          	addi	x11,x12,0 # 10001000 <_binary_fs_img_size+0xfe0d000>
    80001984:	00048513          	addi	x10,x9,0
    80001988:	f6dff0ef          	jal	x1,800018f4 <kvmmap>
    8000198c:	00600713          	addi	x14,x0,6
    80001990:	040006b7          	lui	x13,0x4000
    80001994:	0c000637          	lui	x12,0xc000
    80001998:	00060593          	addi	x11,x12,0 # c000000 <_binary_fs_img_size+0xbe0c000>
    8000199c:	00048513          	addi	x10,x9,0
    800019a0:	f55ff0ef          	jal	x1,800018f4 <kvmmap>
    800019a4:	00a00713          	addi	x14,x0,10
    800019a8:	80007697          	auipc	x13,0x80007
    800019ac:	65868693          	addi	x13,x13,1624 # 9000 <_binary_fs_img_size-0x1eb000>
    800019b0:	00100613          	addi	x12,x0,1
    800019b4:	01f61613          	slli	x12,x12,0x1f
    800019b8:	00060593          	addi	x11,x12,0
    800019bc:	00048513          	addi	x10,x9,0
    800019c0:	f35ff0ef          	jal	x1,800018f4 <kvmmap>
    800019c4:	00600713          	addi	x14,x0,6
    800019c8:	00007697          	auipc	x13,0x7
    800019cc:	63868693          	addi	x13,x13,1592 # 80009000 <etext>
    800019d0:	08100793          	addi	x15,x0,129
    800019d4:	01879793          	slli	x15,x15,0x18
    800019d8:	40d786b3          	sub	x13,x15,x13
    800019dc:	00007617          	auipc	x12,0x7
    800019e0:	62460613          	addi	x12,x12,1572 # 80009000 <etext>
    800019e4:	00060593          	addi	x11,x12,0
    800019e8:	00048513          	addi	x10,x9,0
    800019ec:	f09ff0ef          	jal	x1,800018f4 <kvmmap>
    800019f0:	00a00713          	addi	x14,x0,10
    800019f4:	000016b7          	lui	x13,0x1
    800019f8:	00006617          	auipc	x12,0x6
    800019fc:	60860613          	addi	x12,x12,1544 # 80008000 <_trampoline>
    80001a00:	040005b7          	lui	x11,0x4000
    80001a04:	fff58593          	addi	x11,x11,-1 # 3ffffff <_binary_fs_img_size+0x3e0bfff>
    80001a08:	00c59593          	slli	x11,x11,0xc
    80001a0c:	00048513          	addi	x10,x9,0
    80001a10:	ee5ff0ef          	jal	x1,800018f4 <kvmmap>
    80001a14:	00048513          	addi	x10,x9,0
    80001a18:	1b9000ef          	jal	x1,800023d0 <proc_mapstacks>
    80001a1c:	00048513          	addi	x10,x9,0
    80001a20:	01813083          	ld	x1,24(x2)
    80001a24:	01013403          	ld	x8,16(x2)
    80001a28:	00813483          	ld	x9,8(x2)
    80001a2c:	02010113          	addi	x2,x2,32
    80001a30:	00008067          	jalr	x0,0(x1)

0000000080001a34 <kvminit>:
    80001a34:	ff010113          	addi	x2,x2,-16
    80001a38:	00113423          	sd	x1,8(x2)
    80001a3c:	00813023          	sd	x8,0(x2)
    80001a40:	01010413          	addi	x8,x2,16
    80001a44:	ef1ff0ef          	jal	x1,80001934 <kvmmake>
    80001a48:	001fc797          	auipc	x15,0x1fc
    80001a4c:	f6a7b423          	sd	x10,-152(x15) # 801fd9b0 <kernel_pagetable>
    80001a50:	00813083          	ld	x1,8(x2)
    80001a54:	00013403          	ld	x8,0(x2)
    80001a58:	01010113          	addi	x2,x2,16
    80001a5c:	00008067          	jalr	x0,0(x1)

0000000080001a60 <uvmcreate>:
    80001a60:	fe010113          	addi	x2,x2,-32
    80001a64:	00113c23          	sd	x1,24(x2)
    80001a68:	00813823          	sd	x8,16(x2)
    80001a6c:	00913423          	sd	x9,8(x2)
    80001a70:	02010413          	addi	x8,x2,32
    80001a74:	cbcff0ef          	jal	x1,80000f30 <kalloc>
    80001a78:	00050493          	addi	x9,x10,0
    80001a7c:	00050863          	beq	x10,x0,80001a8c <uvmcreate+0x2c>
    80001a80:	00001637          	lui	x12,0x1
    80001a84:	00000593          	addi	x11,x0,0
    80001a88:	fa4ff0ef          	jal	x1,8000122c <memset>
    80001a8c:	00048513          	addi	x10,x9,0
    80001a90:	01813083          	ld	x1,24(x2)
    80001a94:	01013403          	ld	x8,16(x2)
    80001a98:	00813483          	ld	x9,8(x2)
    80001a9c:	02010113          	addi	x2,x2,32
    80001aa0:	00008067          	jalr	x0,0(x1)

0000000080001aa4 <uvmunmap>:
    80001aa4:	fc010113          	addi	x2,x2,-64
    80001aa8:	02113c23          	sd	x1,56(x2)
    80001aac:	02813823          	sd	x8,48(x2)
    80001ab0:	04010413          	addi	x8,x2,64
    80001ab4:	03459793          	slli	x15,x11,0x34
    80001ab8:	02079e63          	bne	x15,x0,80001af4 <uvmunmap+0x50>
    80001abc:	03213023          	sd	x18,32(x2)
    80001ac0:	01313c23          	sd	x19,24(x2)
    80001ac4:	01413823          	sd	x20,16(x2)
    80001ac8:	01513423          	sd	x21,8(x2)
    80001acc:	01613023          	sd	x22,0(x2)
    80001ad0:	00050a13          	addi	x20,x10,0
    80001ad4:	00058913          	addi	x18,x11,0
    80001ad8:	00068a93          	addi	x21,x13,0 # 1000 <_binary_fs_img_size-0x1f3000>
    80001adc:	00c61613          	slli	x12,x12,0xc
    80001ae0:	00b609b3          	add	x19,x12,x11
    80001ae4:	00001b37          	lui	x22,0x1
    80001ae8:	0735fc63          	bgeu	x11,x19,80001b60 <uvmunmap+0xbc>
    80001aec:	02913423          	sd	x9,40(x2)
    80001af0:	0340006f          	jal	x0,80001b24 <uvmunmap+0x80>
    80001af4:	02913423          	sd	x9,40(x2)
    80001af8:	03213023          	sd	x18,32(x2)
    80001afc:	01313c23          	sd	x19,24(x2)
    80001b00:	01413823          	sd	x20,16(x2)
    80001b04:	01513423          	sd	x21,8(x2)
    80001b08:	01613023          	sd	x22,0(x2)
    80001b0c:	00008517          	auipc	x10,0x8
    80001b10:	82450513          	addi	x10,x10,-2012 # 80009330 <etext+0x330>
    80001b14:	fd9fe0ef          	jal	x1,80000aec <panic>
    80001b18:	0004b023          	sd	x0,0(x9)
    80001b1c:	01690933          	add	x18,x18,x22
    80001b20:	03397e63          	bgeu	x18,x19,80001b5c <uvmunmap+0xb8>
    80001b24:	00000613          	addi	x12,x0,0
    80001b28:	00090593          	addi	x11,x18,0
    80001b2c:	000a0513          	addi	x10,x20,0
    80001b30:	b65ff0ef          	jal	x1,80001694 <walk>
    80001b34:	00050493          	addi	x9,x10,0
    80001b38:	fe0502e3          	beq	x10,x0,80001b1c <uvmunmap+0x78>
    80001b3c:	00053783          	ld	x15,0(x10)
    80001b40:	0017f713          	andi	x14,x15,1
    80001b44:	fc070ce3          	beq	x14,x0,80001b1c <uvmunmap+0x78>
    80001b48:	fc0a88e3          	beq	x21,x0,80001b18 <uvmunmap+0x74>
    80001b4c:	00a7d793          	srli	x15,x15,0xa
    80001b50:	00c79513          	slli	x10,x15,0xc
    80001b54:	a3cff0ef          	jal	x1,80000d90 <kfree>
    80001b58:	fc1ff06f          	jal	x0,80001b18 <uvmunmap+0x74>
    80001b5c:	02813483          	ld	x9,40(x2)
    80001b60:	02013903          	ld	x18,32(x2)
    80001b64:	01813983          	ld	x19,24(x2)
    80001b68:	01013a03          	ld	x20,16(x2)
    80001b6c:	00813a83          	ld	x21,8(x2)
    80001b70:	00013b03          	ld	x22,0(x2)
    80001b74:	03813083          	ld	x1,56(x2)
    80001b78:	03013403          	ld	x8,48(x2)
    80001b7c:	04010113          	addi	x2,x2,64
    80001b80:	00008067          	jalr	x0,0(x1)

0000000080001b84 <uvmdealloc>:
    80001b84:	fe010113          	addi	x2,x2,-32
    80001b88:	00113c23          	sd	x1,24(x2)
    80001b8c:	00813823          	sd	x8,16(x2)
    80001b90:	00913423          	sd	x9,8(x2)
    80001b94:	02010413          	addi	x8,x2,32
    80001b98:	00058493          	addi	x9,x11,0
    80001b9c:	02b67463          	bgeu	x12,x11,80001bc4 <uvmdealloc+0x40>
    80001ba0:	00060493          	addi	x9,x12,0 # 1000 <_binary_fs_img_size-0x1f3000>
    80001ba4:	000017b7          	lui	x15,0x1
    80001ba8:	fff78793          	addi	x15,x15,-1 # fff <_binary_fs_img_size-0x1f3001>
    80001bac:	00f60733          	add	x14,x12,x15
    80001bb0:	fffff6b7          	lui	x13,0xfffff
    80001bb4:	00d77733          	and	x14,x14,x13
    80001bb8:	00f587b3          	add	x15,x11,x15
    80001bbc:	00d7f7b3          	and	x15,x15,x13
    80001bc0:	00f76e63          	bltu	x14,x15,80001bdc <uvmdealloc+0x58>
    80001bc4:	00048513          	addi	x10,x9,0
    80001bc8:	01813083          	ld	x1,24(x2)
    80001bcc:	01013403          	ld	x8,16(x2)
    80001bd0:	00813483          	ld	x9,8(x2)
    80001bd4:	02010113          	addi	x2,x2,32
    80001bd8:	00008067          	jalr	x0,0(x1)
    80001bdc:	40e787b3          	sub	x15,x15,x14
    80001be0:	00c7d793          	srli	x15,x15,0xc
    80001be4:	00100693          	addi	x13,x0,1
    80001be8:	0007861b          	addiw	x12,x15,0
    80001bec:	00070593          	addi	x11,x14,0
    80001bf0:	eb5ff0ef          	jal	x1,80001aa4 <uvmunmap>
    80001bf4:	fd1ff06f          	jal	x0,80001bc4 <uvmdealloc+0x40>

0000000080001bf8 <uvmalloc>:
    80001bf8:	12b66263          	bltu	x12,x11,80001d1c <uvmalloc+0x124>
    80001bfc:	fb010113          	addi	x2,x2,-80
    80001c00:	04113423          	sd	x1,72(x2)
    80001c04:	04813023          	sd	x8,64(x2)
    80001c08:	03413023          	sd	x20,32(x2)
    80001c0c:	01513c23          	sd	x21,24(x2)
    80001c10:	01713423          	sd	x23,8(x2)
    80001c14:	05010413          	addi	x8,x2,80
    80001c18:	00050a93          	addi	x21,x10,0
    80001c1c:	00060a13          	addi	x20,x12,0
    80001c20:	000017b7          	lui	x15,0x1
    80001c24:	fff78793          	addi	x15,x15,-1 # fff <_binary_fs_img_size-0x1f3001>
    80001c28:	00f585b3          	add	x11,x11,x15
    80001c2c:	fffff7b7          	lui	x15,0xfffff
    80001c30:	00f5f7b3          	and	x15,x11,x15
    80001c34:	00078b93          	addi	x23,x15,0 # fffffffffffff000 <end+0xffffffff7fbf4450>
    80001c38:	0ec7f663          	bgeu	x15,x12,80001d24 <uvmalloc+0x12c>
    80001c3c:	02913c23          	sd	x9,56(x2)
    80001c40:	03213823          	sd	x18,48(x2)
    80001c44:	03313423          	sd	x19,40(x2)
    80001c48:	01613823          	sd	x22,16(x2)
    80001c4c:	00078913          	addi	x18,x15,0
    80001c50:	000019b7          	lui	x19,0x1
    80001c54:	0126eb13          	ori	x22,x13,18
    80001c58:	ad8ff0ef          	jal	x1,80000f30 <kalloc>
    80001c5c:	00050493          	addi	x9,x10,0
    80001c60:	04050663          	beq	x10,x0,80001cac <uvmalloc+0xb4>
    80001c64:	00098613          	addi	x12,x19,0 # 1000 <_binary_fs_img_size-0x1f3000>
    80001c68:	00000593          	addi	x11,x0,0
    80001c6c:	dc0ff0ef          	jal	x1,8000122c <memset>
    80001c70:	000b0713          	addi	x14,x22,0 # 1000 <_binary_fs_img_size-0x1f3000>
    80001c74:	00048693          	addi	x13,x9,0
    80001c78:	00098613          	addi	x12,x19,0
    80001c7c:	00090593          	addi	x11,x18,0
    80001c80:	000a8513          	addi	x10,x21,0
    80001c84:	b61ff0ef          	jal	x1,800017e4 <mappages>
    80001c88:	06051263          	bne	x10,x0,80001cec <uvmalloc+0xf4>
    80001c8c:	01390933          	add	x18,x18,x19
    80001c90:	fd4964e3          	bltu	x18,x20,80001c58 <uvmalloc+0x60>
    80001c94:	000a0513          	addi	x10,x20,0
    80001c98:	03813483          	ld	x9,56(x2)
    80001c9c:	03013903          	ld	x18,48(x2)
    80001ca0:	02813983          	ld	x19,40(x2)
    80001ca4:	01013b03          	ld	x22,16(x2)
    80001ca8:	0280006f          	jal	x0,80001cd0 <uvmalloc+0xd8>
    80001cac:	000b8613          	addi	x12,x23,0 # 1000 <_binary_fs_img_size-0x1f3000>
    80001cb0:	00090593          	addi	x11,x18,0
    80001cb4:	000a8513          	addi	x10,x21,0
    80001cb8:	ecdff0ef          	jal	x1,80001b84 <uvmdealloc>
    80001cbc:	00000513          	addi	x10,x0,0
    80001cc0:	03813483          	ld	x9,56(x2)
    80001cc4:	03013903          	ld	x18,48(x2)
    80001cc8:	02813983          	ld	x19,40(x2)
    80001ccc:	01013b03          	ld	x22,16(x2)
    80001cd0:	04813083          	ld	x1,72(x2)
    80001cd4:	04013403          	ld	x8,64(x2)
    80001cd8:	02013a03          	ld	x20,32(x2)
    80001cdc:	01813a83          	ld	x21,24(x2)
    80001ce0:	00813b83          	ld	x23,8(x2)
    80001ce4:	05010113          	addi	x2,x2,80
    80001ce8:	00008067          	jalr	x0,0(x1)
    80001cec:	00048513          	addi	x10,x9,0
    80001cf0:	8a0ff0ef          	jal	x1,80000d90 <kfree>
    80001cf4:	000b8613          	addi	x12,x23,0
    80001cf8:	00090593          	addi	x11,x18,0
    80001cfc:	000a8513          	addi	x10,x21,0
    80001d00:	e85ff0ef          	jal	x1,80001b84 <uvmdealloc>
    80001d04:	00000513          	addi	x10,x0,0
    80001d08:	03813483          	ld	x9,56(x2)
    80001d0c:	03013903          	ld	x18,48(x2)
    80001d10:	02813983          	ld	x19,40(x2)
    80001d14:	01013b03          	ld	x22,16(x2)
    80001d18:	fb9ff06f          	jal	x0,80001cd0 <uvmalloc+0xd8>
    80001d1c:	00058513          	addi	x10,x11,0
    80001d20:	00008067          	jalr	x0,0(x1)
    80001d24:	00060513          	addi	x10,x12,0
    80001d28:	fa9ff06f          	jal	x0,80001cd0 <uvmalloc+0xd8>

0000000080001d2c <freewalk>:
    80001d2c:	fd010113          	addi	x2,x2,-48
    80001d30:	02113423          	sd	x1,40(x2)
    80001d34:	02813023          	sd	x8,32(x2)
    80001d38:	00913c23          	sd	x9,24(x2)
    80001d3c:	01213823          	sd	x18,16(x2)
    80001d40:	01313423          	sd	x19,8(x2)
    80001d44:	03010413          	addi	x8,x2,48
    80001d48:	00050993          	addi	x19,x10,0
    80001d4c:	00050493          	addi	x9,x10,0
    80001d50:	00001937          	lui	x18,0x1
    80001d54:	01250933          	add	x18,x10,x18
    80001d58:	0180006f          	jal	x0,80001d70 <freewalk+0x44>
    80001d5c:	00007517          	auipc	x10,0x7
    80001d60:	5ec50513          	addi	x10,x10,1516 # 80009348 <etext+0x348>
    80001d64:	d89fe0ef          	jal	x1,80000aec <panic>
    80001d68:	00848493          	addi	x9,x9,8
    80001d6c:	03248663          	beq	x9,x18,80001d98 <freewalk+0x6c>
    80001d70:	0004b783          	ld	x15,0(x9)
    80001d74:	0017f713          	andi	x14,x15,1
    80001d78:	fe0708e3          	beq	x14,x0,80001d68 <freewalk+0x3c>
    80001d7c:	00e7f713          	andi	x14,x15,14
    80001d80:	fc071ee3          	bne	x14,x0,80001d5c <freewalk+0x30>
    80001d84:	00a7d793          	srli	x15,x15,0xa
    80001d88:	00c79513          	slli	x10,x15,0xc
    80001d8c:	fa1ff0ef          	jal	x1,80001d2c <freewalk>
    80001d90:	0004b023          	sd	x0,0(x9)
    80001d94:	fd5ff06f          	jal	x0,80001d68 <freewalk+0x3c>
    80001d98:	00098513          	addi	x10,x19,0
    80001d9c:	ff5fe0ef          	jal	x1,80000d90 <kfree>
    80001da0:	02813083          	ld	x1,40(x2)
    80001da4:	02013403          	ld	x8,32(x2)
    80001da8:	01813483          	ld	x9,24(x2)
    80001dac:	01013903          	ld	x18,16(x2)
    80001db0:	00813983          	ld	x19,8(x2)
    80001db4:	03010113          	addi	x2,x2,48
    80001db8:	00008067          	jalr	x0,0(x1)

0000000080001dbc <uvmfree>:
    80001dbc:	fe010113          	addi	x2,x2,-32
    80001dc0:	00113c23          	sd	x1,24(x2)
    80001dc4:	00813823          	sd	x8,16(x2)
    80001dc8:	00913423          	sd	x9,8(x2)
    80001dcc:	02010413          	addi	x8,x2,32
    80001dd0:	00050493          	addi	x9,x10,0
    80001dd4:	02059063          	bne	x11,x0,80001df4 <uvmfree+0x38>
    80001dd8:	00048513          	addi	x10,x9,0
    80001ddc:	f51ff0ef          	jal	x1,80001d2c <freewalk>
    80001de0:	01813083          	ld	x1,24(x2)
    80001de4:	01013403          	ld	x8,16(x2)
    80001de8:	00813483          	ld	x9,8(x2)
    80001dec:	02010113          	addi	x2,x2,32
    80001df0:	00008067          	jalr	x0,0(x1)
    80001df4:	000017b7          	lui	x15,0x1
    80001df8:	fff78793          	addi	x15,x15,-1 # fff <_binary_fs_img_size-0x1f3001>
    80001dfc:	00f585b3          	add	x11,x11,x15
    80001e00:	00100693          	addi	x13,x0,1
    80001e04:	00c5d613          	srli	x12,x11,0xc
    80001e08:	00000593          	addi	x11,x0,0
    80001e0c:	c99ff0ef          	jal	x1,80001aa4 <uvmunmap>
    80001e10:	fc9ff06f          	jal	x0,80001dd8 <uvmfree+0x1c>

0000000080001e14 <uvmcopy>:
    80001e14:	0e060e63          	beq	x12,x0,80001f10 <uvmcopy+0xfc>
    80001e18:	fb010113          	addi	x2,x2,-80
    80001e1c:	04113423          	sd	x1,72(x2)
    80001e20:	04813023          	sd	x8,64(x2)
    80001e24:	02913c23          	sd	x9,56(x2)
    80001e28:	03213823          	sd	x18,48(x2)
    80001e2c:	03313423          	sd	x19,40(x2)
    80001e30:	03413023          	sd	x20,32(x2)
    80001e34:	01513c23          	sd	x21,24(x2)
    80001e38:	01613823          	sd	x22,16(x2)
    80001e3c:	01713423          	sd	x23,8(x2)
    80001e40:	05010413          	addi	x8,x2,80
    80001e44:	00050b13          	addi	x22,x10,0
    80001e48:	00058b93          	addi	x23,x11,0
    80001e4c:	00060a93          	addi	x21,x12,0
    80001e50:	00000493          	addi	x9,x0,0
    80001e54:	00001a37          	lui	x20,0x1
    80001e58:	00c0006f          	jal	x0,80001e64 <uvmcopy+0x50>
    80001e5c:	014484b3          	add	x9,x9,x20
    80001e60:	0954f063          	bgeu	x9,x21,80001ee0 <uvmcopy+0xcc>
    80001e64:	00000613          	addi	x12,x0,0
    80001e68:	00048593          	addi	x11,x9,0
    80001e6c:	000b0513          	addi	x10,x22,0
    80001e70:	825ff0ef          	jal	x1,80001694 <walk>
    80001e74:	fe0504e3          	beq	x10,x0,80001e5c <uvmcopy+0x48>
    80001e78:	00053983          	ld	x19,0(x10)
    80001e7c:	0019f793          	andi	x15,x19,1
    80001e80:	fc078ee3          	beq	x15,x0,80001e5c <uvmcopy+0x48>
    80001e84:	8acff0ef          	jal	x1,80000f30 <kalloc>
    80001e88:	00050913          	addi	x18,x10,0
    80001e8c:	02050c63          	beq	x10,x0,80001ec4 <uvmcopy+0xb0>
    80001e90:	00a9d593          	srli	x11,x19,0xa
    80001e94:	000a0613          	addi	x12,x20,0 # 1000 <_binary_fs_img_size-0x1f3000>
    80001e98:	00c59593          	slli	x11,x11,0xc
    80001e9c:	c2cff0ef          	jal	x1,800012c8 <memmove>
    80001ea0:	3ff9f713          	andi	x14,x19,1023
    80001ea4:	00090693          	addi	x13,x18,0 # 1000 <_binary_fs_img_size-0x1f3000>
    80001ea8:	000a0613          	addi	x12,x20,0
    80001eac:	00048593          	addi	x11,x9,0
    80001eb0:	000b8513          	addi	x10,x23,0
    80001eb4:	931ff0ef          	jal	x1,800017e4 <mappages>
    80001eb8:	fa0502e3          	beq	x10,x0,80001e5c <uvmcopy+0x48>
    80001ebc:	00090513          	addi	x10,x18,0
    80001ec0:	ed1fe0ef          	jal	x1,80000d90 <kfree>
    80001ec4:	00100693          	addi	x13,x0,1
    80001ec8:	00c4d613          	srli	x12,x9,0xc
    80001ecc:	00000593          	addi	x11,x0,0
    80001ed0:	000b8513          	addi	x10,x23,0
    80001ed4:	bd1ff0ef          	jal	x1,80001aa4 <uvmunmap>
    80001ed8:	fff00513          	addi	x10,x0,-1
    80001edc:	0080006f          	jal	x0,80001ee4 <uvmcopy+0xd0>
    80001ee0:	00000513          	addi	x10,x0,0
    80001ee4:	04813083          	ld	x1,72(x2)
    80001ee8:	04013403          	ld	x8,64(x2)
    80001eec:	03813483          	ld	x9,56(x2)
    80001ef0:	03013903          	ld	x18,48(x2)
    80001ef4:	02813983          	ld	x19,40(x2)
    80001ef8:	02013a03          	ld	x20,32(x2)
    80001efc:	01813a83          	ld	x21,24(x2)
    80001f00:	01013b03          	ld	x22,16(x2)
    80001f04:	00813b83          	ld	x23,8(x2)
    80001f08:	05010113          	addi	x2,x2,80
    80001f0c:	00008067          	jalr	x0,0(x1)
    80001f10:	00000513          	addi	x10,x0,0
    80001f14:	00008067          	jalr	x0,0(x1)

0000000080001f18 <uvmclear>:
    80001f18:	ff010113          	addi	x2,x2,-16
    80001f1c:	00113423          	sd	x1,8(x2)
    80001f20:	00813023          	sd	x8,0(x2)
    80001f24:	01010413          	addi	x8,x2,16
    80001f28:	00000613          	addi	x12,x0,0
    80001f2c:	f68ff0ef          	jal	x1,80001694 <walk>
    80001f30:	02050063          	beq	x10,x0,80001f50 <uvmclear+0x38>
    80001f34:	00053783          	ld	x15,0(x10)
    80001f38:	fef7f793          	andi	x15,x15,-17
    80001f3c:	00f53023          	sd	x15,0(x10)
    80001f40:	00813083          	ld	x1,8(x2)
    80001f44:	00013403          	ld	x8,0(x2)
    80001f48:	01010113          	addi	x2,x2,16
    80001f4c:	00008067          	jalr	x0,0(x1)
    80001f50:	00007517          	auipc	x10,0x7
    80001f54:	40850513          	addi	x10,x10,1032 # 80009358 <etext+0x358>
    80001f58:	b95fe0ef          	jal	x1,80000aec <panic>

0000000080001f5c <copyinstr>:
    80001f5c:	10068e63          	beq	x13,x0,80002078 <copyinstr+0x11c>
    80001f60:	fb010113          	addi	x2,x2,-80
    80001f64:	04113423          	sd	x1,72(x2)
    80001f68:	04813023          	sd	x8,64(x2)
    80001f6c:	02913c23          	sd	x9,56(x2)
    80001f70:	03213823          	sd	x18,48(x2)
    80001f74:	03313423          	sd	x19,40(x2)
    80001f78:	03413023          	sd	x20,32(x2)
    80001f7c:	01513c23          	sd	x21,24(x2)
    80001f80:	01613823          	sd	x22,16(x2)
    80001f84:	01713423          	sd	x23,8(x2)
    80001f88:	05010413          	addi	x8,x2,80
    80001f8c:	00050a93          	addi	x21,x10,0
    80001f90:	00058493          	addi	x9,x11,0
    80001f94:	00060b93          	addi	x23,x12,0
    80001f98:	00068993          	addi	x19,x13,0 # fffffffffffff000 <end+0xffffffff7fbf4450>
    80001f9c:	fffffb37          	lui	x22,0xfffff
    80001fa0:	00001a37          	lui	x20,0x1
    80001fa4:	0580006f          	jal	x0,80001ffc <copyinstr+0xa0>
    80001fa8:	00078023          	sb	x0,0(x15)
    80001fac:	00100793          	addi	x15,x0,1
    80001fb0:	0017c793          	xori	x15,x15,1
    80001fb4:	40f0053b          	subw	x10,x0,x15
    80001fb8:	04813083          	ld	x1,72(x2)
    80001fbc:	04013403          	ld	x8,64(x2)
    80001fc0:	03813483          	ld	x9,56(x2)
    80001fc4:	03013903          	ld	x18,48(x2)
    80001fc8:	02813983          	ld	x19,40(x2)
    80001fcc:	02013a03          	ld	x20,32(x2)
    80001fd0:	01813a83          	ld	x21,24(x2)
    80001fd4:	01013b03          	ld	x22,16(x2)
    80001fd8:	00813b83          	ld	x23,8(x2)
    80001fdc:	05010113          	addi	x2,x2,80
    80001fe0:	00008067          	jalr	x0,0(x1)
    80001fe4:	fff98713          	addi	x14,x19,-1
    80001fe8:	00e48733          	add	x14,x9,x14
    80001fec:	40b709b3          	sub	x19,x14,x11
    80001ff0:	01490bb3          	add	x23,x18,x20
    80001ff4:	06e58263          	beq	x11,x14,80002058 <copyinstr+0xfc>
    80001ff8:	00078493          	addi	x9,x15,0
    80001ffc:	016bf933          	and	x18,x23,x22
    80002000:	00090593          	addi	x11,x18,0
    80002004:	000a8513          	addi	x10,x21,0
    80002008:	f7cff0ef          	jal	x1,80001784 <walkaddr>
    8000200c:	04050a63          	beq	x10,x0,80002060 <copyinstr+0x104>
    80002010:	417906b3          	sub	x13,x18,x23
    80002014:	014686b3          	add	x13,x13,x20
    80002018:	00d9f463          	bgeu	x19,x13,80002020 <copyinstr+0xc4>
    8000201c:	00098693          	addi	x13,x19,0
    80002020:	04068463          	beq	x13,x0,80002068 <copyinstr+0x10c>
    80002024:	01750633          	add	x12,x10,x23
    80002028:	41260633          	sub	x12,x12,x18
    8000202c:	00048793          	addi	x15,x9,0
    80002030:	40960633          	sub	x12,x12,x9
    80002034:	00d486b3          	add	x13,x9,x13
    80002038:	00078593          	addi	x11,x15,0
    8000203c:	00f60733          	add	x14,x12,x15
    80002040:	00074703          	lbu	x14,0(x14)
    80002044:	f60702e3          	beq	x14,x0,80001fa8 <copyinstr+0x4c>
    80002048:	00e78023          	sb	x14,0(x15)
    8000204c:	00178793          	addi	x15,x15,1
    80002050:	fed794e3          	bne	x15,x13,80002038 <copyinstr+0xdc>
    80002054:	f91ff06f          	jal	x0,80001fe4 <copyinstr+0x88>
    80002058:	00000793          	addi	x15,x0,0
    8000205c:	f55ff06f          	jal	x0,80001fb0 <copyinstr+0x54>
    80002060:	fff00513          	addi	x10,x0,-1
    80002064:	f55ff06f          	jal	x0,80001fb8 <copyinstr+0x5c>
    80002068:	00001bb7          	lui	x23,0x1
    8000206c:	01790bb3          	add	x23,x18,x23
    80002070:	00048793          	addi	x15,x9,0
    80002074:	f85ff06f          	jal	x0,80001ff8 <copyinstr+0x9c>
    80002078:	00000793          	addi	x15,x0,0
    8000207c:	0017c793          	xori	x15,x15,1
    80002080:	40f0053b          	subw	x10,x0,x15
    80002084:	00008067          	jalr	x0,0(x1)

0000000080002088 <ismapped>:
    80002088:	ff010113          	addi	x2,x2,-16
    8000208c:	00113423          	sd	x1,8(x2)
    80002090:	00813023          	sd	x8,0(x2)
    80002094:	01010413          	addi	x8,x2,16
    80002098:	00000613          	addi	x12,x0,0
    8000209c:	df8ff0ef          	jal	x1,80001694 <walk>
    800020a0:	00050663          	beq	x10,x0,800020ac <ismapped+0x24>
    800020a4:	00053503          	ld	x10,0(x10)
    800020a8:	00157513          	andi	x10,x10,1
    800020ac:	00813083          	ld	x1,8(x2)
    800020b0:	00013403          	ld	x8,0(x2)
    800020b4:	01010113          	addi	x2,x2,16
    800020b8:	00008067          	jalr	x0,0(x1)

00000000800020bc <vmfault>:
    800020bc:	fd010113          	addi	x2,x2,-48
    800020c0:	02113423          	sd	x1,40(x2)
    800020c4:	02813023          	sd	x8,32(x2)
    800020c8:	01213823          	sd	x18,16(x2)
    800020cc:	01313423          	sd	x19,8(x2)
    800020d0:	01413023          	sd	x20,0(x2)
    800020d4:	03010413          	addi	x8,x2,48
    800020d8:	00050993          	addi	x19,x10,0
    800020dc:	00058913          	addi	x18,x11,0
    800020e0:	540000ef          	jal	x1,80002620 <myproc>
    800020e4:	04853783          	ld	x15,72(x10)
    800020e8:	00000a13          	addi	x20,x0,0
    800020ec:	02f96263          	bltu	x18,x15,80002110 <vmfault+0x54>
    800020f0:	000a0513          	addi	x10,x20,0 # 1000 <_binary_fs_img_size-0x1f3000>
    800020f4:	02813083          	ld	x1,40(x2)
    800020f8:	02013403          	ld	x8,32(x2)
    800020fc:	01013903          	ld	x18,16(x2)
    80002100:	00813983          	ld	x19,8(x2)
    80002104:	00013a03          	ld	x20,0(x2)
    80002108:	03010113          	addi	x2,x2,48
    8000210c:	00008067          	jalr	x0,0(x1)
    80002110:	00913c23          	sd	x9,24(x2)
    80002114:	00050493          	addi	x9,x10,0
    80002118:	fffff7b7          	lui	x15,0xfffff
    8000211c:	00f977b3          	and	x15,x18,x15
    80002120:	00078913          	addi	x18,x15,0 # fffffffffffff000 <end+0xffffffff7fbf4450>
    80002124:	00078593          	addi	x11,x15,0
    80002128:	00098513          	addi	x10,x19,0
    8000212c:	f5dff0ef          	jal	x1,80002088 <ismapped>
    80002130:	00000a13          	addi	x20,x0,0
    80002134:	00050663          	beq	x10,x0,80002140 <vmfault+0x84>
    80002138:	01813483          	ld	x9,24(x2)
    8000213c:	fb5ff06f          	jal	x0,800020f0 <vmfault+0x34>
    80002140:	df1fe0ef          	jal	x1,80000f30 <kalloc>
    80002144:	00050993          	addi	x19,x10,0
    80002148:	04050663          	beq	x10,x0,80002194 <vmfault+0xd8>
    8000214c:	00050a13          	addi	x20,x10,0
    80002150:	00001637          	lui	x12,0x1
    80002154:	00000593          	addi	x11,x0,0
    80002158:	8d4ff0ef          	jal	x1,8000122c <memset>
    8000215c:	01600713          	addi	x14,x0,22
    80002160:	00098693          	addi	x13,x19,0
    80002164:	00001637          	lui	x12,0x1
    80002168:	00090593          	addi	x11,x18,0
    8000216c:	0504b503          	ld	x10,80(x9)
    80002170:	e74ff0ef          	jal	x1,800017e4 <mappages>
    80002174:	00051663          	bne	x10,x0,80002180 <vmfault+0xc4>
    80002178:	01813483          	ld	x9,24(x2)
    8000217c:	f75ff06f          	jal	x0,800020f0 <vmfault+0x34>
    80002180:	00098513          	addi	x10,x19,0
    80002184:	c0dfe0ef          	jal	x1,80000d90 <kfree>
    80002188:	00000a13          	addi	x20,x0,0
    8000218c:	01813483          	ld	x9,24(x2)
    80002190:	f61ff06f          	jal	x0,800020f0 <vmfault+0x34>
    80002194:	01813483          	ld	x9,24(x2)
    80002198:	f59ff06f          	jal	x0,800020f0 <vmfault+0x34>

000000008000219c <copyout>:
    8000219c:	0e068863          	beq	x13,x0,8000228c <copyout+0xf0>
    800021a0:	fa010113          	addi	x2,x2,-96
    800021a4:	04113c23          	sd	x1,88(x2)
    800021a8:	04813823          	sd	x8,80(x2)
    800021ac:	04913423          	sd	x9,72(x2)
    800021b0:	05213023          	sd	x18,64(x2)
    800021b4:	03313c23          	sd	x19,56(x2)
    800021b8:	03413823          	sd	x20,48(x2)
    800021bc:	03513423          	sd	x21,40(x2)
    800021c0:	03613023          	sd	x22,32(x2)
    800021c4:	01713c23          	sd	x23,24(x2)
    800021c8:	01813823          	sd	x24,16(x2)
    800021cc:	01913423          	sd	x25,8(x2)
    800021d0:	01a13023          	sd	x26,0(x2)
    800021d4:	06010413          	addi	x8,x2,96
    800021d8:	00050b93          	addi	x23,x10,0
    800021dc:	00058a13          	addi	x20,x11,0
    800021e0:	00060b13          	addi	x22,x12,0 # 1000 <_binary_fs_img_size-0x1f3000>
    800021e4:	00068a93          	addi	x21,x13,0
    800021e8:	fffffd37          	lui	x26,0xfffff
    800021ec:	fff00c93          	addi	x25,x0,-1
    800021f0:	01acdc93          	srli	x25,x25,0x1a
    800021f4:	00001c37          	lui	x24,0x1
    800021f8:	0280006f          	jal	x0,80002220 <copyout+0x84>
    800021fc:	409a0533          	sub	x10,x20,x9
    80002200:	0009061b          	addiw	x12,x18,0
    80002204:	000b0593          	addi	x11,x22,0 # fffffffffffff000 <end+0xffffffff7fbf4450>
    80002208:	01350533          	add	x10,x10,x19
    8000220c:	8bcff0ef          	jal	x1,800012c8 <memmove>
    80002210:	412a8ab3          	sub	x21,x21,x18
    80002214:	012b0b33          	add	x22,x22,x18
    80002218:	01848a33          	add	x20,x9,x24
    8000221c:	060a8463          	beq	x21,x0,80002284 <copyout+0xe8>
    80002220:	01aa74b3          	and	x9,x20,x26
    80002224:	069ce863          	bltu	x25,x9,80002294 <copyout+0xf8>
    80002228:	00048593          	addi	x11,x9,0
    8000222c:	000b8513          	addi	x10,x23,0 # 1000 <_binary_fs_img_size-0x1f3000>
    80002230:	d54ff0ef          	jal	x1,80001784 <walkaddr>
    80002234:	00050993          	addi	x19,x10,0
    80002238:	00051e63          	bne	x10,x0,80002254 <copyout+0xb8>
    8000223c:	00000613          	addi	x12,x0,0
    80002240:	00048593          	addi	x11,x9,0
    80002244:	000b8513          	addi	x10,x23,0
    80002248:	e75ff0ef          	jal	x1,800020bc <vmfault>
    8000224c:	00050993          	addi	x19,x10,0
    80002250:	08050063          	beq	x10,x0,800022d0 <copyout+0x134>
    80002254:	00000613          	addi	x12,x0,0
    80002258:	00048593          	addi	x11,x9,0
    8000225c:	000b8513          	addi	x10,x23,0
    80002260:	c34ff0ef          	jal	x1,80001694 <walk>
    80002264:	00053783          	ld	x15,0(x10)
    80002268:	0047f793          	andi	x15,x15,4
    8000226c:	06078663          	beq	x15,x0,800022d8 <copyout+0x13c>
    80002270:	41448933          	sub	x18,x9,x20
    80002274:	01890933          	add	x18,x18,x24
    80002278:	f92af2e3          	bgeu	x21,x18,800021fc <copyout+0x60>
    8000227c:	000a8913          	addi	x18,x21,0
    80002280:	f7dff06f          	jal	x0,800021fc <copyout+0x60>
    80002284:	00000513          	addi	x10,x0,0
    80002288:	0100006f          	jal	x0,80002298 <copyout+0xfc>
    8000228c:	00000513          	addi	x10,x0,0
    80002290:	00008067          	jalr	x0,0(x1)
    80002294:	fff00513          	addi	x10,x0,-1
    80002298:	05813083          	ld	x1,88(x2)
    8000229c:	05013403          	ld	x8,80(x2)
    800022a0:	04813483          	ld	x9,72(x2)
    800022a4:	04013903          	ld	x18,64(x2)
    800022a8:	03813983          	ld	x19,56(x2)
    800022ac:	03013a03          	ld	x20,48(x2)
    800022b0:	02813a83          	ld	x21,40(x2)
    800022b4:	02013b03          	ld	x22,32(x2)
    800022b8:	01813b83          	ld	x23,24(x2)
    800022bc:	01013c03          	ld	x24,16(x2)
    800022c0:	00813c83          	ld	x25,8(x2)
    800022c4:	00013d03          	ld	x26,0(x2)
    800022c8:	06010113          	addi	x2,x2,96
    800022cc:	00008067          	jalr	x0,0(x1)
    800022d0:	fff00513          	addi	x10,x0,-1
    800022d4:	fc5ff06f          	jal	x0,80002298 <copyout+0xfc>
    800022d8:	fff00513          	addi	x10,x0,-1
    800022dc:	fbdff06f          	jal	x0,80002298 <copyout+0xfc>

00000000800022e0 <copyin>:
    800022e0:	0e068463          	beq	x13,x0,800023c8 <copyin+0xe8>
    800022e4:	fb010113          	addi	x2,x2,-80
    800022e8:	04113423          	sd	x1,72(x2)
    800022ec:	04813023          	sd	x8,64(x2)
    800022f0:	02913c23          	sd	x9,56(x2)
    800022f4:	03213823          	sd	x18,48(x2)
    800022f8:	03313423          	sd	x19,40(x2)
    800022fc:	03413023          	sd	x20,32(x2)
    80002300:	01513c23          	sd	x21,24(x2)
    80002304:	01613823          	sd	x22,16(x2)
    80002308:	01713423          	sd	x23,8(x2)
    8000230c:	01813023          	sd	x24,0(x2)
    80002310:	05010413          	addi	x8,x2,80
    80002314:	00050b93          	addi	x23,x10,0
    80002318:	00058a93          	addi	x21,x11,0
    8000231c:	00060913          	addi	x18,x12,0
    80002320:	00068a13          	addi	x20,x13,0
    80002324:	fffffc37          	lui	x24,0xfffff
    80002328:	00001b37          	lui	x22,0x1
    8000232c:	0380006f          	jal	x0,80002364 <copyin+0x84>
    80002330:	412984b3          	sub	x9,x19,x18
    80002334:	016484b3          	add	x9,x9,x22
    80002338:	009a7463          	bgeu	x20,x9,80002340 <copyin+0x60>
    8000233c:	000a0493          	addi	x9,x20,0
    80002340:	413905b3          	sub	x11,x18,x19
    80002344:	0004861b          	addiw	x12,x9,0
    80002348:	00a585b3          	add	x11,x11,x10
    8000234c:	000a8513          	addi	x10,x21,0
    80002350:	f79fe0ef          	jal	x1,800012c8 <memmove>
    80002354:	409a0a33          	sub	x20,x20,x9
    80002358:	009a8ab3          	add	x21,x21,x9
    8000235c:	01698933          	add	x18,x19,x22
    80002360:	020a0a63          	beq	x20,x0,80002394 <copyin+0xb4>
    80002364:	018979b3          	and	x19,x18,x24
    80002368:	00098593          	addi	x11,x19,0
    8000236c:	000b8513          	addi	x10,x23,0
    80002370:	c14ff0ef          	jal	x1,80001784 <walkaddr>
    80002374:	fa051ee3          	bne	x10,x0,80002330 <copyin+0x50>
    80002378:	00000613          	addi	x12,x0,0
    8000237c:	00098593          	addi	x11,x19,0
    80002380:	000b8513          	addi	x10,x23,0
    80002384:	d39ff0ef          	jal	x1,800020bc <vmfault>
    80002388:	fa0514e3          	bne	x10,x0,80002330 <copyin+0x50>
    8000238c:	fff00513          	addi	x10,x0,-1
    80002390:	0080006f          	jal	x0,80002398 <copyin+0xb8>
    80002394:	00000513          	addi	x10,x0,0
    80002398:	04813083          	ld	x1,72(x2)
    8000239c:	04013403          	ld	x8,64(x2)
    800023a0:	03813483          	ld	x9,56(x2)
    800023a4:	03013903          	ld	x18,48(x2)
    800023a8:	02813983          	ld	x19,40(x2)
    800023ac:	02013a03          	ld	x20,32(x2)
    800023b0:	01813a83          	ld	x21,24(x2)
    800023b4:	01013b03          	ld	x22,16(x2)
    800023b8:	00813b83          	ld	x23,8(x2)
    800023bc:	00013c03          	ld	x24,0(x2)
    800023c0:	05010113          	addi	x2,x2,80
    800023c4:	00008067          	jalr	x0,0(x1)
    800023c8:	00000513          	addi	x10,x0,0
    800023cc:	00008067          	jalr	x0,0(x1)

00000000800023d0 <proc_mapstacks>:
    800023d0:	fb010113          	addi	x2,x2,-80
    800023d4:	04113423          	sd	x1,72(x2)
    800023d8:	04813023          	sd	x8,64(x2)
    800023dc:	02913c23          	sd	x9,56(x2)
    800023e0:	03213823          	sd	x18,48(x2)
    800023e4:	03313423          	sd	x19,40(x2)
    800023e8:	03413023          	sd	x20,32(x2)
    800023ec:	01513c23          	sd	x21,24(x2)
    800023f0:	01613823          	sd	x22,16(x2)
    800023f4:	01713423          	sd	x23,8(x2)
    800023f8:	01813023          	sd	x24,0(x2)
    800023fc:	05010413          	addi	x8,x2,80
    80002400:	00050a13          	addi	x20,x10,0
    80002404:	00204497          	auipc	x9,0x204
    80002408:	af448493          	addi	x9,x9,-1292 # 80205ef8 <proc>
    8000240c:	00048c13          	addi	x24,x9,0
    80002410:	000a57b7          	lui	x15,0xa5
    80002414:	fa578793          	addi	x15,x15,-91 # a4fa5 <_binary_fs_img_size-0x14f05b>
    80002418:	00c79793          	slli	x15,x15,0xc
    8000241c:	fa578793          	addi	x15,x15,-91
    80002420:	4fa50937          	lui	x18,0x4fa50
    80002424:	a4f90913          	addi	x18,x18,-1457 # 4fa4fa4f <_binary_fs_img_size+0x4f85ba4f>
    80002428:	02091913          	slli	x18,x18,0x20
    8000242c:	00f90933          	add	x18,x18,x15
    80002430:	040009b7          	lui	x19,0x4000
    80002434:	fff98993          	addi	x19,x19,-1 # 3ffffff <_binary_fs_img_size+0x3e0bfff>
    80002438:	00c99993          	slli	x19,x19,0xc
    8000243c:	00600b93          	addi	x23,x0,6
    80002440:	00001b37          	lui	x22,0x1
    80002444:	00209a97          	auipc	x21,0x209
    80002448:	4b4a8a93          	addi	x21,x21,1204 # 8020b8f8 <tickslock>
    8000244c:	ae5fe0ef          	jal	x1,80000f30 <kalloc>
    80002450:	00050613          	addi	x12,x10,0
    80002454:	06050463          	beq	x10,x0,800024bc <proc_mapstacks+0xec>
    80002458:	418485b3          	sub	x11,x9,x24
    8000245c:	4035d593          	srai	x11,x11,0x3
    80002460:	032585b3          	mul	x11,x11,x18
    80002464:	00d59593          	slli	x11,x11,0xd
    80002468:	000027b7          	lui	x15,0x2
    8000246c:	00f585bb          	addw	x11,x11,x15
    80002470:	000b8713          	addi	x14,x23,0
    80002474:	000b0693          	addi	x13,x22,0 # 1000 <_binary_fs_img_size-0x1f3000>
    80002478:	40b985b3          	sub	x11,x19,x11
    8000247c:	000a0513          	addi	x10,x20,0
    80002480:	c74ff0ef          	jal	x1,800018f4 <kvmmap>
    80002484:	16848493          	addi	x9,x9,360
    80002488:	fd5492e3          	bne	x9,x21,8000244c <proc_mapstacks+0x7c>
    8000248c:	04813083          	ld	x1,72(x2)
    80002490:	04013403          	ld	x8,64(x2)
    80002494:	03813483          	ld	x9,56(x2)
    80002498:	03013903          	ld	x18,48(x2)
    8000249c:	02813983          	ld	x19,40(x2)
    800024a0:	02013a03          	ld	x20,32(x2)
    800024a4:	01813a83          	ld	x21,24(x2)
    800024a8:	01013b03          	ld	x22,16(x2)
    800024ac:	00813b83          	ld	x23,8(x2)
    800024b0:	00013c03          	ld	x24,0(x2)
    800024b4:	05010113          	addi	x2,x2,80
    800024b8:	00008067          	jalr	x0,0(x1)
    800024bc:	00007517          	auipc	x10,0x7
    800024c0:	eac50513          	addi	x10,x10,-340 # 80009368 <etext+0x368>
    800024c4:	e28fe0ef          	jal	x1,80000aec <panic>

00000000800024c8 <procinit>:
    800024c8:	fc010113          	addi	x2,x2,-64
    800024cc:	02113c23          	sd	x1,56(x2)
    800024d0:	02813823          	sd	x8,48(x2)
    800024d4:	02913423          	sd	x9,40(x2)
    800024d8:	03213023          	sd	x18,32(x2)
    800024dc:	01313c23          	sd	x19,24(x2)
    800024e0:	01413823          	sd	x20,16(x2)
    800024e4:	01513423          	sd	x21,8(x2)
    800024e8:	01613023          	sd	x22,0(x2)
    800024ec:	04010413          	addi	x8,x2,64
    800024f0:	00007597          	auipc	x11,0x7
    800024f4:	e8058593          	addi	x11,x11,-384 # 80009370 <etext+0x370>
    800024f8:	00203517          	auipc	x10,0x203
    800024fc:	5d050513          	addi	x10,x10,1488 # 80205ac8 <pid_lock>
    80002500:	aadfe0ef          	jal	x1,80000fac <initlock>
    80002504:	00007597          	auipc	x11,0x7
    80002508:	e7458593          	addi	x11,x11,-396 # 80009378 <etext+0x378>
    8000250c:	00203517          	auipc	x10,0x203
    80002510:	5d450513          	addi	x10,x10,1492 # 80205ae0 <wait_lock>
    80002514:	a99fe0ef          	jal	x1,80000fac <initlock>
    80002518:	00204497          	auipc	x9,0x204
    8000251c:	9e048493          	addi	x9,x9,-1568 # 80205ef8 <proc>
    80002520:	00007b17          	auipc	x22,0x7
    80002524:	e68b0b13          	addi	x22,x22,-408 # 80009388 <etext+0x388>
    80002528:	00048a93          	addi	x21,x9,0
    8000252c:	000a57b7          	lui	x15,0xa5
    80002530:	fa578793          	addi	x15,x15,-91 # a4fa5 <_binary_fs_img_size-0x14f05b>
    80002534:	00c79793          	slli	x15,x15,0xc
    80002538:	fa578793          	addi	x15,x15,-91
    8000253c:	4fa50937          	lui	x18,0x4fa50
    80002540:	a4f90913          	addi	x18,x18,-1457 # 4fa4fa4f <_binary_fs_img_size+0x4f85ba4f>
    80002544:	02091913          	slli	x18,x18,0x20
    80002548:	00f90933          	add	x18,x18,x15
    8000254c:	040009b7          	lui	x19,0x4000
    80002550:	fff98993          	addi	x19,x19,-1 # 3ffffff <_binary_fs_img_size+0x3e0bfff>
    80002554:	00c99993          	slli	x19,x19,0xc
    80002558:	00209a17          	auipc	x20,0x209
    8000255c:	3a0a0a13          	addi	x20,x20,928 # 8020b8f8 <tickslock>
    80002560:	000b0593          	addi	x11,x22,0
    80002564:	00048513          	addi	x10,x9,0
    80002568:	a45fe0ef          	jal	x1,80000fac <initlock>
    8000256c:	0004ac23          	sw	x0,24(x9)
    80002570:	415487b3          	sub	x15,x9,x21
    80002574:	4037d793          	srai	x15,x15,0x3
    80002578:	032787b3          	mul	x15,x15,x18
    8000257c:	00d79793          	slli	x15,x15,0xd
    80002580:	00002737          	lui	x14,0x2
    80002584:	00e787bb          	addw	x15,x15,x14
    80002588:	40f987b3          	sub	x15,x19,x15
    8000258c:	04f4b023          	sd	x15,64(x9)
    80002590:	16848493          	addi	x9,x9,360
    80002594:	fd4496e3          	bne	x9,x20,80002560 <procinit+0x98>
    80002598:	03813083          	ld	x1,56(x2)
    8000259c:	03013403          	ld	x8,48(x2)
    800025a0:	02813483          	ld	x9,40(x2)
    800025a4:	02013903          	ld	x18,32(x2)
    800025a8:	01813983          	ld	x19,24(x2)
    800025ac:	01013a03          	ld	x20,16(x2)
    800025b0:	00813a83          	ld	x21,8(x2)
    800025b4:	00013b03          	ld	x22,0(x2)
    800025b8:	04010113          	addi	x2,x2,64
    800025bc:	00008067          	jalr	x0,0(x1)

00000000800025c0 <cpuid>:
    800025c0:	ff010113          	addi	x2,x2,-16
    800025c4:	00113423          	sd	x1,8(x2)
    800025c8:	00813023          	sd	x8,0(x2)
    800025cc:	01010413          	addi	x8,x2,16
    800025d0:	00020513          	addi	x10,x4,0 # 0 <_binary_fs_img_size-0x1f4000>
    800025d4:	0005051b          	addiw	x10,x10,0
    800025d8:	00813083          	ld	x1,8(x2)
    800025dc:	00013403          	ld	x8,0(x2)
    800025e0:	01010113          	addi	x2,x2,16
    800025e4:	00008067          	jalr	x0,0(x1)

00000000800025e8 <mycpu>:
    800025e8:	ff010113          	addi	x2,x2,-16
    800025ec:	00113423          	sd	x1,8(x2)
    800025f0:	00813023          	sd	x8,0(x2)
    800025f4:	01010413          	addi	x8,x2,16
    800025f8:	00020793          	addi	x15,x4,0 # 0 <_binary_fs_img_size-0x1f4000>
    800025fc:	0007879b          	addiw	x15,x15,0
    80002600:	00779793          	slli	x15,x15,0x7
    80002604:	00203517          	auipc	x10,0x203
    80002608:	4f450513          	addi	x10,x10,1268 # 80205af8 <cpus>
    8000260c:	00f50533          	add	x10,x10,x15
    80002610:	00813083          	ld	x1,8(x2)
    80002614:	00013403          	ld	x8,0(x2)
    80002618:	01010113          	addi	x2,x2,16
    8000261c:	00008067          	jalr	x0,0(x1)

0000000080002620 <myproc>:
    80002620:	fe010113          	addi	x2,x2,-32
    80002624:	00113c23          	sd	x1,24(x2)
    80002628:	00813823          	sd	x8,16(x2)
    8000262c:	00913423          	sd	x9,8(x2)
    80002630:	02010413          	addi	x8,x2,32
    80002634:	9f1fe0ef          	jal	x1,80001024 <push_off>
    80002638:	00020793          	addi	x15,x4,0 # 0 <_binary_fs_img_size-0x1f4000>
    8000263c:	0007879b          	addiw	x15,x15,0
    80002640:	00779793          	slli	x15,x15,0x7
    80002644:	00203717          	auipc	x14,0x203
    80002648:	48470713          	addi	x14,x14,1156 # 80205ac8 <pid_lock>
    8000264c:	00f707b3          	add	x15,x14,x15
    80002650:	0307b783          	ld	x15,48(x15)
    80002654:	00078493          	addi	x9,x15,0
    80002658:	aa1fe0ef          	jal	x1,800010f8 <pop_off>
    8000265c:	00048513          	addi	x10,x9,0
    80002660:	01813083          	ld	x1,24(x2)
    80002664:	01013403          	ld	x8,16(x2)
    80002668:	00813483          	ld	x9,8(x2)
    8000266c:	02010113          	addi	x2,x2,32
    80002670:	00008067          	jalr	x0,0(x1)

0000000080002674 <forkret>:
    80002674:	fd010113          	addi	x2,x2,-48
    80002678:	02113423          	sd	x1,40(x2)
    8000267c:	02813023          	sd	x8,32(x2)
    80002680:	00913c23          	sd	x9,24(x2)
    80002684:	03010413          	addi	x8,x2,48
    80002688:	f99ff0ef          	jal	x1,80002620 <myproc>
    8000268c:	00050493          	addi	x9,x10,0
    80002690:	ad9fe0ef          	jal	x1,80001168 <release>
    80002694:	00007797          	auipc	x15,0x7
    80002698:	2fc7a783          	lw	x15,764(x15) # 80009990 <first.1>
    8000269c:	04078663          	beq	x15,x0,800026e8 <forkret+0x74>
    800026a0:	00100513          	addi	x10,x0,1
    800026a4:	061020ef          	jal	x1,80004f04 <fsinit>
    800026a8:	00007797          	auipc	x15,0x7
    800026ac:	2e07a423          	sw	x0,744(x15) # 80009990 <first.1>
    800026b0:	0330000f          	fence	rw,rw
    800026b4:	00007797          	auipc	x15,0x7
    800026b8:	cdc78793          	addi	x15,x15,-804 # 80009390 <etext+0x390>
    800026bc:	fcf43823          	sd	x15,-48(x8)
    800026c0:	fc043c23          	sd	x0,-40(x8)
    800026c4:	fd040593          	addi	x11,x8,-48
    800026c8:	00078513          	addi	x10,x15,0
    800026cc:	274040ef          	jal	x1,80006940 <kexec>
    800026d0:	0584b783          	ld	x15,88(x9)
    800026d4:	06a7b823          	sd	x10,112(x15)
    800026d8:	0584b783          	ld	x15,88(x9)
    800026dc:	0707b703          	ld	x14,112(x15)
    800026e0:	fff00793          	addi	x15,x0,-1
    800026e4:	04f70c63          	beq	x14,x15,8000273c <forkret+0xc8>
    800026e8:	7b9000ef          	jal	x1,800036a0 <prepare_return>
    800026ec:	0504b503          	ld	x10,80(x9)
    800026f0:	00c55513          	srli	x10,x10,0xc
    800026f4:	04000737          	lui	x14,0x4000
    800026f8:	fff70713          	addi	x14,x14,-1 # 3ffffff <_binary_fs_img_size+0x3e0bfff>
    800026fc:	00c71713          	slli	x14,x14,0xc
    80002700:	00006797          	auipc	x15,0x6
    80002704:	9b078793          	addi	x15,x15,-1616 # 800080b0 <userret>
    80002708:	00006697          	auipc	x13,0x6
    8000270c:	8f868693          	addi	x13,x13,-1800 # 80008000 <_trampoline>
    80002710:	40d787b3          	sub	x15,x15,x13
    80002714:	00e787b3          	add	x15,x15,x14
    80002718:	fff00713          	addi	x14,x0,-1
    8000271c:	03f71713          	slli	x14,x14,0x3f
    80002720:	00e56533          	or	x10,x10,x14
    80002724:	000780e7          	jalr	x1,0(x15)
    80002728:	02813083          	ld	x1,40(x2)
    8000272c:	02013403          	ld	x8,32(x2)
    80002730:	01813483          	ld	x9,24(x2)
    80002734:	03010113          	addi	x2,x2,48
    80002738:	00008067          	jalr	x0,0(x1)
    8000273c:	00007517          	auipc	x10,0x7
    80002740:	c5c50513          	addi	x10,x10,-932 # 80009398 <etext+0x398>
    80002744:	ba8fe0ef          	jal	x1,80000aec <panic>

0000000080002748 <allocpid>:
    80002748:	fe010113          	addi	x2,x2,-32
    8000274c:	00113c23          	sd	x1,24(x2)
    80002750:	00813823          	sd	x8,16(x2)
    80002754:	00913423          	sd	x9,8(x2)
    80002758:	02010413          	addi	x8,x2,32
    8000275c:	00203517          	auipc	x10,0x203
    80002760:	36c50513          	addi	x10,x10,876 # 80205ac8 <pid_lock>
    80002764:	92dfe0ef          	jal	x1,80001090 <acquire>
    80002768:	00007797          	auipc	x15,0x7
    8000276c:	22c78793          	addi	x15,x15,556 # 80009994 <nextpid>
    80002770:	0007a483          	lw	x9,0(x15)
    80002774:	0014871b          	addiw	x14,x9,1
    80002778:	00e7a023          	sw	x14,0(x15)
    8000277c:	00203517          	auipc	x10,0x203
    80002780:	34c50513          	addi	x10,x10,844 # 80205ac8 <pid_lock>
    80002784:	9e5fe0ef          	jal	x1,80001168 <release>
    80002788:	00048513          	addi	x10,x9,0
    8000278c:	01813083          	ld	x1,24(x2)
    80002790:	01013403          	ld	x8,16(x2)
    80002794:	00813483          	ld	x9,8(x2)
    80002798:	02010113          	addi	x2,x2,32
    8000279c:	00008067          	jalr	x0,0(x1)

00000000800027a0 <proc_pagetable>:
    800027a0:	fe010113          	addi	x2,x2,-32
    800027a4:	00113c23          	sd	x1,24(x2)
    800027a8:	00813823          	sd	x8,16(x2)
    800027ac:	00913423          	sd	x9,8(x2)
    800027b0:	01213023          	sd	x18,0(x2)
    800027b4:	02010413          	addi	x8,x2,32
    800027b8:	00050913          	addi	x18,x10,0
    800027bc:	aa4ff0ef          	jal	x1,80001a60 <uvmcreate>
    800027c0:	00050493          	addi	x9,x10,0
    800027c4:	04050663          	beq	x10,x0,80002810 <proc_pagetable+0x70>
    800027c8:	00a00713          	addi	x14,x0,10
    800027cc:	00006697          	auipc	x13,0x6
    800027d0:	83468693          	addi	x13,x13,-1996 # 80008000 <_trampoline>
    800027d4:	00001637          	lui	x12,0x1
    800027d8:	040005b7          	lui	x11,0x4000
    800027dc:	fff58593          	addi	x11,x11,-1 # 3ffffff <_binary_fs_img_size+0x3e0bfff>
    800027e0:	00c59593          	slli	x11,x11,0xc
    800027e4:	800ff0ef          	jal	x1,800017e4 <mappages>
    800027e8:	04054263          	blt	x10,x0,8000282c <proc_pagetable+0x8c>
    800027ec:	00600713          	addi	x14,x0,6
    800027f0:	05893683          	ld	x13,88(x18)
    800027f4:	00001637          	lui	x12,0x1
    800027f8:	020005b7          	lui	x11,0x2000
    800027fc:	fff58593          	addi	x11,x11,-1 # 1ffffff <_binary_fs_img_size+0x1e0bfff>
    80002800:	00d59593          	slli	x11,x11,0xd
    80002804:	00048513          	addi	x10,x9,0
    80002808:	fddfe0ef          	jal	x1,800017e4 <mappages>
    8000280c:	02054a63          	blt	x10,x0,80002840 <proc_pagetable+0xa0>
    80002810:	00048513          	addi	x10,x9,0
    80002814:	01813083          	ld	x1,24(x2)
    80002818:	01013403          	ld	x8,16(x2)
    8000281c:	00813483          	ld	x9,8(x2)
    80002820:	00013903          	ld	x18,0(x2)
    80002824:	02010113          	addi	x2,x2,32
    80002828:	00008067          	jalr	x0,0(x1)
    8000282c:	00000593          	addi	x11,x0,0
    80002830:	00048513          	addi	x10,x9,0
    80002834:	d88ff0ef          	jal	x1,80001dbc <uvmfree>
    80002838:	00000493          	addi	x9,x0,0
    8000283c:	fd5ff06f          	jal	x0,80002810 <proc_pagetable+0x70>
    80002840:	00000693          	addi	x13,x0,0
    80002844:	00100613          	addi	x12,x0,1
    80002848:	040005b7          	lui	x11,0x4000
    8000284c:	fff58593          	addi	x11,x11,-1 # 3ffffff <_binary_fs_img_size+0x3e0bfff>
    80002850:	00c59593          	slli	x11,x11,0xc
    80002854:	00048513          	addi	x10,x9,0
    80002858:	a4cff0ef          	jal	x1,80001aa4 <uvmunmap>
    8000285c:	00000593          	addi	x11,x0,0
    80002860:	00048513          	addi	x10,x9,0
    80002864:	d58ff0ef          	jal	x1,80001dbc <uvmfree>
    80002868:	00000493          	addi	x9,x0,0
    8000286c:	fa5ff06f          	jal	x0,80002810 <proc_pagetable+0x70>

0000000080002870 <proc_freepagetable>:
    80002870:	fe010113          	addi	x2,x2,-32
    80002874:	00113c23          	sd	x1,24(x2)
    80002878:	00813823          	sd	x8,16(x2)
    8000287c:	00913423          	sd	x9,8(x2)
    80002880:	01213023          	sd	x18,0(x2)
    80002884:	02010413          	addi	x8,x2,32
    80002888:	00050493          	addi	x9,x10,0
    8000288c:	00058913          	addi	x18,x11,0
    80002890:	00000693          	addi	x13,x0,0
    80002894:	00100613          	addi	x12,x0,1
    80002898:	040005b7          	lui	x11,0x4000
    8000289c:	fff58593          	addi	x11,x11,-1 # 3ffffff <_binary_fs_img_size+0x3e0bfff>
    800028a0:	00c59593          	slli	x11,x11,0xc
    800028a4:	a00ff0ef          	jal	x1,80001aa4 <uvmunmap>
    800028a8:	00000693          	addi	x13,x0,0
    800028ac:	00100613          	addi	x12,x0,1
    800028b0:	020005b7          	lui	x11,0x2000
    800028b4:	fff58593          	addi	x11,x11,-1 # 1ffffff <_binary_fs_img_size+0x1e0bfff>
    800028b8:	00d59593          	slli	x11,x11,0xd
    800028bc:	00048513          	addi	x10,x9,0
    800028c0:	9e4ff0ef          	jal	x1,80001aa4 <uvmunmap>
    800028c4:	00090593          	addi	x11,x18,0
    800028c8:	00048513          	addi	x10,x9,0
    800028cc:	cf0ff0ef          	jal	x1,80001dbc <uvmfree>
    800028d0:	01813083          	ld	x1,24(x2)
    800028d4:	01013403          	ld	x8,16(x2)
    800028d8:	00813483          	ld	x9,8(x2)
    800028dc:	00013903          	ld	x18,0(x2)
    800028e0:	02010113          	addi	x2,x2,32
    800028e4:	00008067          	jalr	x0,0(x1)

00000000800028e8 <freeproc>:
    800028e8:	fe010113          	addi	x2,x2,-32
    800028ec:	00113c23          	sd	x1,24(x2)
    800028f0:	00813823          	sd	x8,16(x2)
    800028f4:	00913423          	sd	x9,8(x2)
    800028f8:	02010413          	addi	x8,x2,32
    800028fc:	00050493          	addi	x9,x10,0
    80002900:	05853503          	ld	x10,88(x10)
    80002904:	00050463          	beq	x10,x0,8000290c <freeproc+0x24>
    80002908:	c88fe0ef          	jal	x1,80000d90 <kfree>
    8000290c:	0404bc23          	sd	x0,88(x9)
    80002910:	0504b503          	ld	x10,80(x9)
    80002914:	00050663          	beq	x10,x0,80002920 <freeproc+0x38>
    80002918:	0484b583          	ld	x11,72(x9)
    8000291c:	f55ff0ef          	jal	x1,80002870 <proc_freepagetable>
    80002920:	0404b823          	sd	x0,80(x9)
    80002924:	0404b423          	sd	x0,72(x9)
    80002928:	0204a823          	sw	x0,48(x9)
    8000292c:	0204bc23          	sd	x0,56(x9)
    80002930:	14048c23          	sb	x0,344(x9)
    80002934:	0204b023          	sd	x0,32(x9)
    80002938:	0204a423          	sw	x0,40(x9)
    8000293c:	0204a623          	sw	x0,44(x9)
    80002940:	0004ac23          	sw	x0,24(x9)
    80002944:	01813083          	ld	x1,24(x2)
    80002948:	01013403          	ld	x8,16(x2)
    8000294c:	00813483          	ld	x9,8(x2)
    80002950:	02010113          	addi	x2,x2,32
    80002954:	00008067          	jalr	x0,0(x1)

0000000080002958 <allocproc>:
    80002958:	fe010113          	addi	x2,x2,-32
    8000295c:	00113c23          	sd	x1,24(x2)
    80002960:	00813823          	sd	x8,16(x2)
    80002964:	00913423          	sd	x9,8(x2)
    80002968:	01213023          	sd	x18,0(x2)
    8000296c:	02010413          	addi	x8,x2,32
    80002970:	00203497          	auipc	x9,0x203
    80002974:	58848493          	addi	x9,x9,1416 # 80205ef8 <proc>
    80002978:	00209917          	auipc	x18,0x209
    8000297c:	f8090913          	addi	x18,x18,-128 # 8020b8f8 <tickslock>
    80002980:	00048513          	addi	x10,x9,0
    80002984:	f0cfe0ef          	jal	x1,80001090 <acquire>
    80002988:	0184a783          	lw	x15,24(x9)
    8000298c:	00078e63          	beq	x15,x0,800029a8 <allocproc+0x50>
    80002990:	00048513          	addi	x10,x9,0
    80002994:	fd4fe0ef          	jal	x1,80001168 <release>
    80002998:	16848493          	addi	x9,x9,360
    8000299c:	ff2492e3          	bne	x9,x18,80002980 <allocproc+0x28>
    800029a0:	00000493          	addi	x9,x0,0
    800029a4:	0640006f          	jal	x0,80002a08 <allocproc+0xb0>
    800029a8:	da1ff0ef          	jal	x1,80002748 <allocpid>
    800029ac:	02a4a823          	sw	x10,48(x9)
    800029b0:	00100793          	addi	x15,x0,1
    800029b4:	00f4ac23          	sw	x15,24(x9)
    800029b8:	d78fe0ef          	jal	x1,80000f30 <kalloc>
    800029bc:	00050913          	addi	x18,x10,0
    800029c0:	04a4bc23          	sd	x10,88(x9)
    800029c4:	06050063          	beq	x10,x0,80002a24 <allocproc+0xcc>
    800029c8:	00048513          	addi	x10,x9,0
    800029cc:	dd5ff0ef          	jal	x1,800027a0 <proc_pagetable>
    800029d0:	00050913          	addi	x18,x10,0
    800029d4:	04a4b823          	sd	x10,80(x9)
    800029d8:	06050263          	beq	x10,x0,80002a3c <allocproc+0xe4>
    800029dc:	07000613          	addi	x12,x0,112
    800029e0:	00000593          	addi	x11,x0,0
    800029e4:	06048513          	addi	x10,x9,96
    800029e8:	845fe0ef          	jal	x1,8000122c <memset>
    800029ec:	00000797          	auipc	x15,0x0
    800029f0:	c8878793          	addi	x15,x15,-888 # 80002674 <forkret>
    800029f4:	06f4b023          	sd	x15,96(x9)
    800029f8:	0404b783          	ld	x15,64(x9)
    800029fc:	00001737          	lui	x14,0x1
    80002a00:	00e787b3          	add	x15,x15,x14
    80002a04:	06f4b423          	sd	x15,104(x9)
    80002a08:	00048513          	addi	x10,x9,0
    80002a0c:	01813083          	ld	x1,24(x2)
    80002a10:	01013403          	ld	x8,16(x2)
    80002a14:	00813483          	ld	x9,8(x2)
    80002a18:	00013903          	ld	x18,0(x2)
    80002a1c:	02010113          	addi	x2,x2,32
    80002a20:	00008067          	jalr	x0,0(x1)
    80002a24:	00048513          	addi	x10,x9,0
    80002a28:	ec1ff0ef          	jal	x1,800028e8 <freeproc>
    80002a2c:	00048513          	addi	x10,x9,0
    80002a30:	f38fe0ef          	jal	x1,80001168 <release>
    80002a34:	00090493          	addi	x9,x18,0
    80002a38:	fd1ff06f          	jal	x0,80002a08 <allocproc+0xb0>
    80002a3c:	00048513          	addi	x10,x9,0
    80002a40:	ea9ff0ef          	jal	x1,800028e8 <freeproc>
    80002a44:	00048513          	addi	x10,x9,0
    80002a48:	f20fe0ef          	jal	x1,80001168 <release>
    80002a4c:	00090493          	addi	x9,x18,0
    80002a50:	fb9ff06f          	jal	x0,80002a08 <allocproc+0xb0>

0000000080002a54 <userinit>:
    80002a54:	fe010113          	addi	x2,x2,-32
    80002a58:	00113c23          	sd	x1,24(x2)
    80002a5c:	00813823          	sd	x8,16(x2)
    80002a60:	00913423          	sd	x9,8(x2)
    80002a64:	02010413          	addi	x8,x2,32
    80002a68:	ef1ff0ef          	jal	x1,80002958 <allocproc>
    80002a6c:	00050493          	addi	x9,x10,0
    80002a70:	001fb797          	auipc	x15,0x1fb
    80002a74:	f4a7b423          	sd	x10,-184(x15) # 801fd9b8 <initproc>
    80002a78:	00007517          	auipc	x10,0x7
    80002a7c:	92850513          	addi	x10,x10,-1752 # 800093a0 <etext+0x3a0>
    80002a80:	485020ef          	jal	x1,80005704 <namei>
    80002a84:	14a4b823          	sd	x10,336(x9)
    80002a88:	00300793          	addi	x15,x0,3
    80002a8c:	00f4ac23          	sw	x15,24(x9)
    80002a90:	00048513          	addi	x10,x9,0
    80002a94:	ed4fe0ef          	jal	x1,80001168 <release>
    80002a98:	01813083          	ld	x1,24(x2)
    80002a9c:	01013403          	ld	x8,16(x2)
    80002aa0:	00813483          	ld	x9,8(x2)
    80002aa4:	02010113          	addi	x2,x2,32
    80002aa8:	00008067          	jalr	x0,0(x1)

0000000080002aac <growproc>:
    80002aac:	fe010113          	addi	x2,x2,-32
    80002ab0:	00113c23          	sd	x1,24(x2)
    80002ab4:	00813823          	sd	x8,16(x2)
    80002ab8:	00913423          	sd	x9,8(x2)
    80002abc:	01213023          	sd	x18,0(x2)
    80002ac0:	02010413          	addi	x8,x2,32
    80002ac4:	00050493          	addi	x9,x10,0
    80002ac8:	b59ff0ef          	jal	x1,80002620 <myproc>
    80002acc:	00050913          	addi	x18,x10,0
    80002ad0:	04853583          	ld	x11,72(x10)
    80002ad4:	04905663          	bge	x0,x9,80002b20 <growproc+0x74>
    80002ad8:	00b48633          	add	x12,x9,x11
    80002adc:	020007b7          	lui	x15,0x2000
    80002ae0:	fff78793          	addi	x15,x15,-1 # 1ffffff <_binary_fs_img_size+0x1e0bfff>
    80002ae4:	00d79793          	slli	x15,x15,0xd
    80002ae8:	04c7e863          	bltu	x15,x12,80002b38 <growproc+0x8c>
    80002aec:	00400693          	addi	x13,x0,4
    80002af0:	05053503          	ld	x10,80(x10)
    80002af4:	904ff0ef          	jal	x1,80001bf8 <uvmalloc>
    80002af8:	00050593          	addi	x11,x10,0
    80002afc:	04050263          	beq	x10,x0,80002b40 <growproc+0x94>
    80002b00:	04b93423          	sd	x11,72(x18)
    80002b04:	00000513          	addi	x10,x0,0
    80002b08:	01813083          	ld	x1,24(x2)
    80002b0c:	01013403          	ld	x8,16(x2)
    80002b10:	00813483          	ld	x9,8(x2)
    80002b14:	00013903          	ld	x18,0(x2)
    80002b18:	02010113          	addi	x2,x2,32
    80002b1c:	00008067          	jalr	x0,0(x1)
    80002b20:	fe04d0e3          	bge	x9,x0,80002b00 <growproc+0x54>
    80002b24:	00b48633          	add	x12,x9,x11
    80002b28:	05053503          	ld	x10,80(x10)
    80002b2c:	858ff0ef          	jal	x1,80001b84 <uvmdealloc>
    80002b30:	00050593          	addi	x11,x10,0
    80002b34:	fcdff06f          	jal	x0,80002b00 <growproc+0x54>
    80002b38:	fff00513          	addi	x10,x0,-1
    80002b3c:	fcdff06f          	jal	x0,80002b08 <growproc+0x5c>
    80002b40:	fff00513          	addi	x10,x0,-1
    80002b44:	fc5ff06f          	jal	x0,80002b08 <growproc+0x5c>

0000000080002b48 <kfork>:
    80002b48:	fc010113          	addi	x2,x2,-64
    80002b4c:	02113c23          	sd	x1,56(x2)
    80002b50:	02813823          	sd	x8,48(x2)
    80002b54:	02913423          	sd	x9,40(x2)
    80002b58:	01513423          	sd	x21,8(x2)
    80002b5c:	04010413          	addi	x8,x2,64
    80002b60:	ac1ff0ef          	jal	x1,80002620 <myproc>
    80002b64:	00050a93          	addi	x21,x10,0
    80002b68:	df1ff0ef          	jal	x1,80002958 <allocproc>
    80002b6c:	14050263          	beq	x10,x0,80002cb0 <kfork+0x168>
    80002b70:	01413823          	sd	x20,16(x2)
    80002b74:	00050a13          	addi	x20,x10,0
    80002b78:	048ab603          	ld	x12,72(x21)
    80002b7c:	05053583          	ld	x11,80(x10)
    80002b80:	050ab503          	ld	x10,80(x21)
    80002b84:	a90ff0ef          	jal	x1,80001e14 <uvmcopy>
    80002b88:	06054463          	blt	x10,x0,80002bf0 <kfork+0xa8>
    80002b8c:	03213023          	sd	x18,32(x2)
    80002b90:	01313c23          	sd	x19,24(x2)
    80002b94:	048ab783          	ld	x15,72(x21)
    80002b98:	04fa3423          	sd	x15,72(x20)
    80002b9c:	058ab683          	ld	x13,88(x21)
    80002ba0:	00068793          	addi	x15,x13,0
    80002ba4:	058a3703          	ld	x14,88(x20)
    80002ba8:	12068693          	addi	x13,x13,288
    80002bac:	0007b503          	ld	x10,0(x15)
    80002bb0:	0087b583          	ld	x11,8(x15)
    80002bb4:	0107b603          	ld	x12,16(x15)
    80002bb8:	00a73023          	sd	x10,0(x14) # 1000 <_binary_fs_img_size-0x1f3000>
    80002bbc:	00b73423          	sd	x11,8(x14)
    80002bc0:	00c73823          	sd	x12,16(x14)
    80002bc4:	0187b603          	ld	x12,24(x15)
    80002bc8:	00c73c23          	sd	x12,24(x14)
    80002bcc:	02078793          	addi	x15,x15,32
    80002bd0:	02070713          	addi	x14,x14,32
    80002bd4:	fcd79ce3          	bne	x15,x13,80002bac <kfork+0x64>
    80002bd8:	058a3783          	ld	x15,88(x20)
    80002bdc:	0607b823          	sd	x0,112(x15)
    80002be0:	0d0a8493          	addi	x9,x21,208
    80002be4:	0d0a0913          	addi	x18,x20,208
    80002be8:	150a8993          	addi	x19,x21,336
    80002bec:	02c0006f          	jal	x0,80002c18 <kfork+0xd0>
    80002bf0:	000a0513          	addi	x10,x20,0
    80002bf4:	cf5ff0ef          	jal	x1,800028e8 <freeproc>
    80002bf8:	000a0513          	addi	x10,x20,0
    80002bfc:	d6cfe0ef          	jal	x1,80001168 <release>
    80002c00:	fff00493          	addi	x9,x0,-1
    80002c04:	01013a03          	ld	x20,16(x2)
    80002c08:	08c0006f          	jal	x0,80002c94 <kfork+0x14c>
    80002c0c:	00848493          	addi	x9,x9,8
    80002c10:	00890913          	addi	x18,x18,8
    80002c14:	01348c63          	beq	x9,x19,80002c2c <kfork+0xe4>
    80002c18:	0004b503          	ld	x10,0(x9)
    80002c1c:	fe0508e3          	beq	x10,x0,80002c0c <kfork+0xc4>
    80002c20:	318030ef          	jal	x1,80005f38 <filedup>
    80002c24:	00a93023          	sd	x10,0(x18)
    80002c28:	fe5ff06f          	jal	x0,80002c0c <kfork+0xc4>
    80002c2c:	150ab503          	ld	x10,336(x21)
    80002c30:	5e5010ef          	jal	x1,80004a14 <idup>
    80002c34:	14aa3823          	sd	x10,336(x20)
    80002c38:	01000613          	addi	x12,x0,16
    80002c3c:	158a8593          	addi	x11,x21,344
    80002c40:	158a0513          	addi	x10,x20,344
    80002c44:	801fe0ef          	jal	x1,80001444 <safestrcpy>
    80002c48:	030a2483          	lw	x9,48(x20)
    80002c4c:	000a0513          	addi	x10,x20,0
    80002c50:	d18fe0ef          	jal	x1,80001168 <release>
    80002c54:	00203517          	auipc	x10,0x203
    80002c58:	e8c50513          	addi	x10,x10,-372 # 80205ae0 <wait_lock>
    80002c5c:	c34fe0ef          	jal	x1,80001090 <acquire>
    80002c60:	035a3c23          	sd	x21,56(x20)
    80002c64:	00203517          	auipc	x10,0x203
    80002c68:	e7c50513          	addi	x10,x10,-388 # 80205ae0 <wait_lock>
    80002c6c:	cfcfe0ef          	jal	x1,80001168 <release>
    80002c70:	000a0513          	addi	x10,x20,0
    80002c74:	c1cfe0ef          	jal	x1,80001090 <acquire>
    80002c78:	00300793          	addi	x15,x0,3
    80002c7c:	00fa2c23          	sw	x15,24(x20)
    80002c80:	000a0513          	addi	x10,x20,0
    80002c84:	ce4fe0ef          	jal	x1,80001168 <release>
    80002c88:	02013903          	ld	x18,32(x2)
    80002c8c:	01813983          	ld	x19,24(x2)
    80002c90:	01013a03          	ld	x20,16(x2)
    80002c94:	00048513          	addi	x10,x9,0
    80002c98:	03813083          	ld	x1,56(x2)
    80002c9c:	03013403          	ld	x8,48(x2)
    80002ca0:	02813483          	ld	x9,40(x2)
    80002ca4:	00813a83          	ld	x21,8(x2)
    80002ca8:	04010113          	addi	x2,x2,64
    80002cac:	00008067          	jalr	x0,0(x1)
    80002cb0:	fff00493          	addi	x9,x0,-1
    80002cb4:	fe1ff06f          	jal	x0,80002c94 <kfork+0x14c>

0000000080002cb8 <scheduler>:
    80002cb8:	fb010113          	addi	x2,x2,-80
    80002cbc:	04113423          	sd	x1,72(x2)
    80002cc0:	04813023          	sd	x8,64(x2)
    80002cc4:	02913c23          	sd	x9,56(x2)
    80002cc8:	03213823          	sd	x18,48(x2)
    80002ccc:	03313423          	sd	x19,40(x2)
    80002cd0:	03413023          	sd	x20,32(x2)
    80002cd4:	01513c23          	sd	x21,24(x2)
    80002cd8:	01613823          	sd	x22,16(x2)
    80002cdc:	01713423          	sd	x23,8(x2)
    80002ce0:	01813023          	sd	x24,0(x2)
    80002ce4:	05010413          	addi	x8,x2,80
    80002ce8:	00020793          	addi	x15,x4,0 # 0 <_binary_fs_img_size-0x1f4000>
    80002cec:	0007879b          	addiw	x15,x15,0
    80002cf0:	00779b13          	slli	x22,x15,0x7
    80002cf4:	00203717          	auipc	x14,0x203
    80002cf8:	dd470713          	addi	x14,x14,-556 # 80205ac8 <pid_lock>
    80002cfc:	01670733          	add	x14,x14,x22
    80002d00:	02073823          	sd	x0,48(x14)
    80002d04:	00203717          	auipc	x14,0x203
    80002d08:	dfc70713          	addi	x14,x14,-516 # 80205b00 <cpus+0x8>
    80002d0c:	00eb0b33          	add	x22,x22,x14
    80002d10:	00400c13          	addi	x24,x0,4
    80002d14:	00779793          	slli	x15,x15,0x7
    80002d18:	00203a17          	auipc	x20,0x203
    80002d1c:	db0a0a13          	addi	x20,x20,-592 # 80205ac8 <pid_lock>
    80002d20:	00fa0a33          	add	x20,x20,x15
    80002d24:	00100b93          	addi	x23,x0,1
    80002d28:	04c0006f          	jal	x0,80002d74 <scheduler+0xbc>
    80002d2c:	00048513          	addi	x10,x9,0
    80002d30:	c38fe0ef          	jal	x1,80001168 <release>
    80002d34:	16848493          	addi	x9,x9,360
    80002d38:	03248a63          	beq	x9,x18,80002d6c <scheduler+0xb4>
    80002d3c:	00048513          	addi	x10,x9,0
    80002d40:	b50fe0ef          	jal	x1,80001090 <acquire>
    80002d44:	0184a783          	lw	x15,24(x9)
    80002d48:	ff3792e3          	bne	x15,x19,80002d2c <scheduler+0x74>
    80002d4c:	0184ac23          	sw	x24,24(x9)
    80002d50:	029a3823          	sd	x9,48(x20)
    80002d54:	06048593          	addi	x11,x9,96
    80002d58:	000b0513          	addi	x10,x22,0
    80002d5c:	071000ef          	jal	x1,800035cc <swtch>
    80002d60:	020a3823          	sd	x0,48(x20)
    80002d64:	000b8a93          	addi	x21,x23,0
    80002d68:	fc5ff06f          	jal	x0,80002d2c <scheduler+0x74>
    80002d6c:	000a9463          	bne	x21,x0,80002d74 <scheduler+0xbc>
    80002d70:	10500073          	wfi
    80002d74:	100027f3          	csrrs	x15,sstatus,x0
    80002d78:	0027e793          	ori	x15,x15,2
    80002d7c:	10079073          	csrrw	x0,sstatus,x15
    80002d80:	100027f3          	csrrs	x15,sstatus,x0
    80002d84:	ffd7f793          	andi	x15,x15,-3
    80002d88:	10079073          	csrrw	x0,sstatus,x15
    80002d8c:	00000a93          	addi	x21,x0,0
    80002d90:	00203497          	auipc	x9,0x203
    80002d94:	16848493          	addi	x9,x9,360 # 80205ef8 <proc>
    80002d98:	00300993          	addi	x19,x0,3
    80002d9c:	00209917          	auipc	x18,0x209
    80002da0:	b5c90913          	addi	x18,x18,-1188 # 8020b8f8 <tickslock>
    80002da4:	f99ff06f          	jal	x0,80002d3c <scheduler+0x84>

0000000080002da8 <sched>:
    80002da8:	fd010113          	addi	x2,x2,-48
    80002dac:	02113423          	sd	x1,40(x2)
    80002db0:	02813023          	sd	x8,32(x2)
    80002db4:	00913c23          	sd	x9,24(x2)
    80002db8:	01213823          	sd	x18,16(x2)
    80002dbc:	01313423          	sd	x19,8(x2)
    80002dc0:	03010413          	addi	x8,x2,48
    80002dc4:	85dff0ef          	jal	x1,80002620 <myproc>
    80002dc8:	00050493          	addi	x9,x10,0
    80002dcc:	a0cfe0ef          	jal	x1,80000fd8 <holding>
    80002dd0:	0a050863          	beq	x10,x0,80002e80 <sched+0xd8>
    80002dd4:	00020793          	addi	x15,x4,0 # 0 <_binary_fs_img_size-0x1f4000>
    80002dd8:	0007879b          	addiw	x15,x15,0
    80002ddc:	00779793          	slli	x15,x15,0x7
    80002de0:	00203717          	auipc	x14,0x203
    80002de4:	ce870713          	addi	x14,x14,-792 # 80205ac8 <pid_lock>
    80002de8:	00f707b3          	add	x15,x14,x15
    80002dec:	0a87a703          	lw	x14,168(x15)
    80002df0:	00100793          	addi	x15,x0,1
    80002df4:	08f71c63          	bne	x14,x15,80002e8c <sched+0xe4>
    80002df8:	0184a703          	lw	x14,24(x9)
    80002dfc:	00400793          	addi	x15,x0,4
    80002e00:	08f70c63          	beq	x14,x15,80002e98 <sched+0xf0>
    80002e04:	100027f3          	csrrs	x15,sstatus,x0
    80002e08:	0027f793          	andi	x15,x15,2
    80002e0c:	08079c63          	bne	x15,x0,80002ea4 <sched+0xfc>
    80002e10:	00020793          	addi	x15,x4,0 # 0 <_binary_fs_img_size-0x1f4000>
    80002e14:	00203917          	auipc	x18,0x203
    80002e18:	cb490913          	addi	x18,x18,-844 # 80205ac8 <pid_lock>
    80002e1c:	0007879b          	addiw	x15,x15,0
    80002e20:	00779793          	slli	x15,x15,0x7
    80002e24:	00f907b3          	add	x15,x18,x15
    80002e28:	0ac7a983          	lw	x19,172(x15)
    80002e2c:	00020793          	addi	x15,x4,0 # 0 <_binary_fs_img_size-0x1f4000>
    80002e30:	0007879b          	addiw	x15,x15,0
    80002e34:	00779793          	slli	x15,x15,0x7
    80002e38:	00878793          	addi	x15,x15,8
    80002e3c:	00203597          	auipc	x11,0x203
    80002e40:	cbc58593          	addi	x11,x11,-836 # 80205af8 <cpus>
    80002e44:	00f585b3          	add	x11,x11,x15
    80002e48:	06048513          	addi	x10,x9,96
    80002e4c:	780000ef          	jal	x1,800035cc <swtch>
    80002e50:	00020793          	addi	x15,x4,0 # 0 <_binary_fs_img_size-0x1f4000>
    80002e54:	0007879b          	addiw	x15,x15,0
    80002e58:	00779793          	slli	x15,x15,0x7
    80002e5c:	00f90933          	add	x18,x18,x15
    80002e60:	0b392623          	sw	x19,172(x18)
    80002e64:	02813083          	ld	x1,40(x2)
    80002e68:	02013403          	ld	x8,32(x2)
    80002e6c:	01813483          	ld	x9,24(x2)
    80002e70:	01013903          	ld	x18,16(x2)
    80002e74:	00813983          	ld	x19,8(x2)
    80002e78:	03010113          	addi	x2,x2,48
    80002e7c:	00008067          	jalr	x0,0(x1)
    80002e80:	00006517          	auipc	x10,0x6
    80002e84:	52850513          	addi	x10,x10,1320 # 800093a8 <etext+0x3a8>
    80002e88:	c65fd0ef          	jal	x1,80000aec <panic>
    80002e8c:	00006517          	auipc	x10,0x6
    80002e90:	52c50513          	addi	x10,x10,1324 # 800093b8 <etext+0x3b8>
    80002e94:	c59fd0ef          	jal	x1,80000aec <panic>
    80002e98:	00006517          	auipc	x10,0x6
    80002e9c:	53050513          	addi	x10,x10,1328 # 800093c8 <etext+0x3c8>
    80002ea0:	c4dfd0ef          	jal	x1,80000aec <panic>
    80002ea4:	00006517          	auipc	x10,0x6
    80002ea8:	53450513          	addi	x10,x10,1332 # 800093d8 <etext+0x3d8>
    80002eac:	c41fd0ef          	jal	x1,80000aec <panic>

0000000080002eb0 <yield>:
    80002eb0:	fe010113          	addi	x2,x2,-32
    80002eb4:	00113c23          	sd	x1,24(x2)
    80002eb8:	00813823          	sd	x8,16(x2)
    80002ebc:	00913423          	sd	x9,8(x2)
    80002ec0:	02010413          	addi	x8,x2,32
    80002ec4:	f5cff0ef          	jal	x1,80002620 <myproc>
    80002ec8:	00050493          	addi	x9,x10,0
    80002ecc:	9c4fe0ef          	jal	x1,80001090 <acquire>
    80002ed0:	00300793          	addi	x15,x0,3
    80002ed4:	00f4ac23          	sw	x15,24(x9)
    80002ed8:	ed1ff0ef          	jal	x1,80002da8 <sched>
    80002edc:	00048513          	addi	x10,x9,0
    80002ee0:	a88fe0ef          	jal	x1,80001168 <release>
    80002ee4:	01813083          	ld	x1,24(x2)
    80002ee8:	01013403          	ld	x8,16(x2)
    80002eec:	00813483          	ld	x9,8(x2)
    80002ef0:	02010113          	addi	x2,x2,32
    80002ef4:	00008067          	jalr	x0,0(x1)

0000000080002ef8 <sleep>:
    80002ef8:	fd010113          	addi	x2,x2,-48
    80002efc:	02113423          	sd	x1,40(x2)
    80002f00:	02813023          	sd	x8,32(x2)
    80002f04:	00913c23          	sd	x9,24(x2)
    80002f08:	01213823          	sd	x18,16(x2)
    80002f0c:	01313423          	sd	x19,8(x2)
    80002f10:	03010413          	addi	x8,x2,48
    80002f14:	00050993          	addi	x19,x10,0
    80002f18:	00058913          	addi	x18,x11,0
    80002f1c:	f04ff0ef          	jal	x1,80002620 <myproc>
    80002f20:	00050493          	addi	x9,x10,0
    80002f24:	96cfe0ef          	jal	x1,80001090 <acquire>
    80002f28:	00090513          	addi	x10,x18,0
    80002f2c:	a3cfe0ef          	jal	x1,80001168 <release>
    80002f30:	0334b023          	sd	x19,32(x9)
    80002f34:	00200793          	addi	x15,x0,2
    80002f38:	00f4ac23          	sw	x15,24(x9)
    80002f3c:	e6dff0ef          	jal	x1,80002da8 <sched>
    80002f40:	0204b023          	sd	x0,32(x9)
    80002f44:	00048513          	addi	x10,x9,0
    80002f48:	a20fe0ef          	jal	x1,80001168 <release>
    80002f4c:	00090513          	addi	x10,x18,0
    80002f50:	940fe0ef          	jal	x1,80001090 <acquire>
    80002f54:	02813083          	ld	x1,40(x2)
    80002f58:	02013403          	ld	x8,32(x2)
    80002f5c:	01813483          	ld	x9,24(x2)
    80002f60:	01013903          	ld	x18,16(x2)
    80002f64:	00813983          	ld	x19,8(x2)
    80002f68:	03010113          	addi	x2,x2,48
    80002f6c:	00008067          	jalr	x0,0(x1)

0000000080002f70 <wakeup>:
    80002f70:	fc010113          	addi	x2,x2,-64
    80002f74:	02113c23          	sd	x1,56(x2)
    80002f78:	02813823          	sd	x8,48(x2)
    80002f7c:	02913423          	sd	x9,40(x2)
    80002f80:	03213023          	sd	x18,32(x2)
    80002f84:	01313c23          	sd	x19,24(x2)
    80002f88:	01413823          	sd	x20,16(x2)
    80002f8c:	01513423          	sd	x21,8(x2)
    80002f90:	04010413          	addi	x8,x2,64
    80002f94:	00050a13          	addi	x20,x10,0
    80002f98:	00203497          	auipc	x9,0x203
    80002f9c:	f6048493          	addi	x9,x9,-160 # 80205ef8 <proc>
    80002fa0:	00200993          	addi	x19,x0,2
    80002fa4:	00300a93          	addi	x21,x0,3
    80002fa8:	00209917          	auipc	x18,0x209
    80002fac:	95090913          	addi	x18,x18,-1712 # 8020b8f8 <tickslock>
    80002fb0:	0140006f          	jal	x0,80002fc4 <wakeup+0x54>
    80002fb4:	00048513          	addi	x10,x9,0
    80002fb8:	9b0fe0ef          	jal	x1,80001168 <release>
    80002fbc:	16848493          	addi	x9,x9,360
    80002fc0:	03248663          	beq	x9,x18,80002fec <wakeup+0x7c>
    80002fc4:	e5cff0ef          	jal	x1,80002620 <myproc>
    80002fc8:	fe950ae3          	beq	x10,x9,80002fbc <wakeup+0x4c>
    80002fcc:	00048513          	addi	x10,x9,0
    80002fd0:	8c0fe0ef          	jal	x1,80001090 <acquire>
    80002fd4:	0184a783          	lw	x15,24(x9)
    80002fd8:	fd379ee3          	bne	x15,x19,80002fb4 <wakeup+0x44>
    80002fdc:	0204b783          	ld	x15,32(x9)
    80002fe0:	fd479ae3          	bne	x15,x20,80002fb4 <wakeup+0x44>
    80002fe4:	0154ac23          	sw	x21,24(x9)
    80002fe8:	fcdff06f          	jal	x0,80002fb4 <wakeup+0x44>
    80002fec:	03813083          	ld	x1,56(x2)
    80002ff0:	03013403          	ld	x8,48(x2)
    80002ff4:	02813483          	ld	x9,40(x2)
    80002ff8:	02013903          	ld	x18,32(x2)
    80002ffc:	01813983          	ld	x19,24(x2)
    80003000:	01013a03          	ld	x20,16(x2)
    80003004:	00813a83          	ld	x21,8(x2)
    80003008:	04010113          	addi	x2,x2,64
    8000300c:	00008067          	jalr	x0,0(x1)

0000000080003010 <reparent>:
    80003010:	fd010113          	addi	x2,x2,-48
    80003014:	02113423          	sd	x1,40(x2)
    80003018:	02813023          	sd	x8,32(x2)
    8000301c:	00913c23          	sd	x9,24(x2)
    80003020:	01213823          	sd	x18,16(x2)
    80003024:	01313423          	sd	x19,8(x2)
    80003028:	01413023          	sd	x20,0(x2)
    8000302c:	03010413          	addi	x8,x2,48
    80003030:	00050913          	addi	x18,x10,0
    80003034:	00203497          	auipc	x9,0x203
    80003038:	ec448493          	addi	x9,x9,-316 # 80205ef8 <proc>
    8000303c:	001fba17          	auipc	x20,0x1fb
    80003040:	97ca0a13          	addi	x20,x20,-1668 # 801fd9b8 <initproc>
    80003044:	00209997          	auipc	x19,0x209
    80003048:	8b498993          	addi	x19,x19,-1868 # 8020b8f8 <tickslock>
    8000304c:	00c0006f          	jal	x0,80003058 <reparent+0x48>
    80003050:	16848493          	addi	x9,x9,360
    80003054:	01348e63          	beq	x9,x19,80003070 <reparent+0x60>
    80003058:	0384b783          	ld	x15,56(x9)
    8000305c:	ff279ae3          	bne	x15,x18,80003050 <reparent+0x40>
    80003060:	000a3503          	ld	x10,0(x20)
    80003064:	02a4bc23          	sd	x10,56(x9)
    80003068:	f09ff0ef          	jal	x1,80002f70 <wakeup>
    8000306c:	fe5ff06f          	jal	x0,80003050 <reparent+0x40>
    80003070:	02813083          	ld	x1,40(x2)
    80003074:	02013403          	ld	x8,32(x2)
    80003078:	01813483          	ld	x9,24(x2)
    8000307c:	01013903          	ld	x18,16(x2)
    80003080:	00813983          	ld	x19,8(x2)
    80003084:	00013a03          	ld	x20,0(x2)
    80003088:	03010113          	addi	x2,x2,48
    8000308c:	00008067          	jalr	x0,0(x1)

0000000080003090 <kexit>:
    80003090:	fd010113          	addi	x2,x2,-48
    80003094:	02113423          	sd	x1,40(x2)
    80003098:	02813023          	sd	x8,32(x2)
    8000309c:	00913c23          	sd	x9,24(x2)
    800030a0:	01213823          	sd	x18,16(x2)
    800030a4:	01313423          	sd	x19,8(x2)
    800030a8:	01413023          	sd	x20,0(x2)
    800030ac:	03010413          	addi	x8,x2,48
    800030b0:	00050a13          	addi	x20,x10,0
    800030b4:	d6cff0ef          	jal	x1,80002620 <myproc>
    800030b8:	00050993          	addi	x19,x10,0
    800030bc:	001fb797          	auipc	x15,0x1fb
    800030c0:	8fc7b783          	ld	x15,-1796(x15) # 801fd9b8 <initproc>
    800030c4:	0d050493          	addi	x9,x10,208
    800030c8:	15050913          	addi	x18,x10,336
    800030cc:	00a79c63          	bne	x15,x10,800030e4 <kexit+0x54>
    800030d0:	00006517          	auipc	x10,0x6
    800030d4:	32050513          	addi	x10,x10,800 # 800093f0 <etext+0x3f0>
    800030d8:	a15fd0ef          	jal	x1,80000aec <panic>
    800030dc:	00848493          	addi	x9,x9,8
    800030e0:	01248c63          	beq	x9,x18,800030f8 <kexit+0x68>
    800030e4:	0004b503          	ld	x10,0(x9)
    800030e8:	fe050ae3          	beq	x10,x0,800030dc <kexit+0x4c>
    800030ec:	6b1020ef          	jal	x1,80005f9c <fileclose>
    800030f0:	0004b023          	sd	x0,0(x9)
    800030f4:	fe9ff06f          	jal	x0,800030dc <kexit+0x4c>
    800030f8:	0c9020ef          	jal	x1,800059c0 <begin_op>
    800030fc:	1509b503          	ld	x10,336(x19)
    80003100:	395010ef          	jal	x1,80004c94 <iput>
    80003104:	161020ef          	jal	x1,80005a64 <end_op>
    80003108:	1409b823          	sd	x0,336(x19)
    8000310c:	00203517          	auipc	x10,0x203
    80003110:	9d450513          	addi	x10,x10,-1580 # 80205ae0 <wait_lock>
    80003114:	f7dfd0ef          	jal	x1,80001090 <acquire>
    80003118:	00098513          	addi	x10,x19,0
    8000311c:	ef5ff0ef          	jal	x1,80003010 <reparent>
    80003120:	0389b503          	ld	x10,56(x19)
    80003124:	e4dff0ef          	jal	x1,80002f70 <wakeup>
    80003128:	00098513          	addi	x10,x19,0
    8000312c:	f65fd0ef          	jal	x1,80001090 <acquire>
    80003130:	0349a623          	sw	x20,44(x19)
    80003134:	00500793          	addi	x15,x0,5
    80003138:	00f9ac23          	sw	x15,24(x19)
    8000313c:	00203517          	auipc	x10,0x203
    80003140:	9a450513          	addi	x10,x10,-1628 # 80205ae0 <wait_lock>
    80003144:	824fe0ef          	jal	x1,80001168 <release>
    80003148:	c61ff0ef          	jal	x1,80002da8 <sched>
    8000314c:	00006517          	auipc	x10,0x6
    80003150:	2b450513          	addi	x10,x10,692 # 80009400 <etext+0x400>
    80003154:	999fd0ef          	jal	x1,80000aec <panic>

0000000080003158 <kkill>:
    80003158:	fd010113          	addi	x2,x2,-48
    8000315c:	02113423          	sd	x1,40(x2)
    80003160:	02813023          	sd	x8,32(x2)
    80003164:	00913c23          	sd	x9,24(x2)
    80003168:	01213823          	sd	x18,16(x2)
    8000316c:	01313423          	sd	x19,8(x2)
    80003170:	03010413          	addi	x8,x2,48
    80003174:	00050913          	addi	x18,x10,0
    80003178:	00203497          	auipc	x9,0x203
    8000317c:	d8048493          	addi	x9,x9,-640 # 80205ef8 <proc>
    80003180:	00208997          	auipc	x19,0x208
    80003184:	77898993          	addi	x19,x19,1912 # 8020b8f8 <tickslock>
    80003188:	00048513          	addi	x10,x9,0
    8000318c:	f05fd0ef          	jal	x1,80001090 <acquire>
    80003190:	0304a783          	lw	x15,48(x9)
    80003194:	01278e63          	beq	x15,x18,800031b0 <kkill+0x58>
    80003198:	00048513          	addi	x10,x9,0
    8000319c:	fcdfd0ef          	jal	x1,80001168 <release>
    800031a0:	16848493          	addi	x9,x9,360
    800031a4:	ff3492e3          	bne	x9,x19,80003188 <kkill+0x30>
    800031a8:	fff00513          	addi	x10,x0,-1
    800031ac:	0240006f          	jal	x0,800031d0 <kkill+0x78>
    800031b0:	00100793          	addi	x15,x0,1
    800031b4:	02f4a423          	sw	x15,40(x9)
    800031b8:	0184a703          	lw	x14,24(x9)
    800031bc:	00200793          	addi	x15,x0,2
    800031c0:	02f70663          	beq	x14,x15,800031ec <kkill+0x94>
    800031c4:	00048513          	addi	x10,x9,0
    800031c8:	fa1fd0ef          	jal	x1,80001168 <release>
    800031cc:	00000513          	addi	x10,x0,0
    800031d0:	02813083          	ld	x1,40(x2)
    800031d4:	02013403          	ld	x8,32(x2)
    800031d8:	01813483          	ld	x9,24(x2)
    800031dc:	01013903          	ld	x18,16(x2)
    800031e0:	00813983          	ld	x19,8(x2)
    800031e4:	03010113          	addi	x2,x2,48
    800031e8:	00008067          	jalr	x0,0(x1)
    800031ec:	00300793          	addi	x15,x0,3
    800031f0:	00f4ac23          	sw	x15,24(x9)
    800031f4:	fd1ff06f          	jal	x0,800031c4 <kkill+0x6c>

00000000800031f8 <setkilled>:
    800031f8:	fe010113          	addi	x2,x2,-32
    800031fc:	00113c23          	sd	x1,24(x2)
    80003200:	00813823          	sd	x8,16(x2)
    80003204:	00913423          	sd	x9,8(x2)
    80003208:	02010413          	addi	x8,x2,32
    8000320c:	00050493          	addi	x9,x10,0
    80003210:	e81fd0ef          	jal	x1,80001090 <acquire>
    80003214:	00100793          	addi	x15,x0,1
    80003218:	02f4a423          	sw	x15,40(x9)
    8000321c:	00048513          	addi	x10,x9,0
    80003220:	f49fd0ef          	jal	x1,80001168 <release>
    80003224:	01813083          	ld	x1,24(x2)
    80003228:	01013403          	ld	x8,16(x2)
    8000322c:	00813483          	ld	x9,8(x2)
    80003230:	02010113          	addi	x2,x2,32
    80003234:	00008067          	jalr	x0,0(x1)

0000000080003238 <killed>:
    80003238:	fe010113          	addi	x2,x2,-32
    8000323c:	00113c23          	sd	x1,24(x2)
    80003240:	00813823          	sd	x8,16(x2)
    80003244:	00913423          	sd	x9,8(x2)
    80003248:	01213023          	sd	x18,0(x2)
    8000324c:	02010413          	addi	x8,x2,32
    80003250:	00050493          	addi	x9,x10,0
    80003254:	e3dfd0ef          	jal	x1,80001090 <acquire>
    80003258:	0284a783          	lw	x15,40(x9)
    8000325c:	00078913          	addi	x18,x15,0
    80003260:	00048513          	addi	x10,x9,0
    80003264:	f05fd0ef          	jal	x1,80001168 <release>
    80003268:	00090513          	addi	x10,x18,0
    8000326c:	01813083          	ld	x1,24(x2)
    80003270:	01013403          	ld	x8,16(x2)
    80003274:	00813483          	ld	x9,8(x2)
    80003278:	00013903          	ld	x18,0(x2)
    8000327c:	02010113          	addi	x2,x2,32
    80003280:	00008067          	jalr	x0,0(x1)

0000000080003284 <kwait>:
    80003284:	fb010113          	addi	x2,x2,-80
    80003288:	04113423          	sd	x1,72(x2)
    8000328c:	04813023          	sd	x8,64(x2)
    80003290:	02913c23          	sd	x9,56(x2)
    80003294:	03213823          	sd	x18,48(x2)
    80003298:	03313423          	sd	x19,40(x2)
    8000329c:	03413023          	sd	x20,32(x2)
    800032a0:	01513c23          	sd	x21,24(x2)
    800032a4:	01613823          	sd	x22,16(x2)
    800032a8:	01713423          	sd	x23,8(x2)
    800032ac:	05010413          	addi	x8,x2,80
    800032b0:	00050b93          	addi	x23,x10,0
    800032b4:	b6cff0ef          	jal	x1,80002620 <myproc>
    800032b8:	00050913          	addi	x18,x10,0
    800032bc:	00203517          	auipc	x10,0x203
    800032c0:	82450513          	addi	x10,x10,-2012 # 80205ae0 <wait_lock>
    800032c4:	dcdfd0ef          	jal	x1,80001090 <acquire>
    800032c8:	00500a13          	addi	x20,x0,5
    800032cc:	00100a93          	addi	x21,x0,1
    800032d0:	00208997          	auipc	x19,0x208
    800032d4:	62898993          	addi	x19,x19,1576 # 8020b8f8 <tickslock>
    800032d8:	00203b17          	auipc	x22,0x203
    800032dc:	808b0b13          	addi	x22,x22,-2040 # 80205ae0 <wait_lock>
    800032e0:	0d80006f          	jal	x0,800033b8 <kwait+0x134>
    800032e4:	0304a983          	lw	x19,48(x9)
    800032e8:	000b8e63          	beq	x23,x0,80003304 <kwait+0x80>
    800032ec:	00400693          	addi	x13,x0,4
    800032f0:	02c48613          	addi	x12,x9,44
    800032f4:	000b8593          	addi	x11,x23,0
    800032f8:	05093503          	ld	x10,80(x18)
    800032fc:	ea1fe0ef          	jal	x1,8000219c <copyout>
    80003300:	04054863          	blt	x10,x0,80003350 <kwait+0xcc>
    80003304:	00048513          	addi	x10,x9,0
    80003308:	de0ff0ef          	jal	x1,800028e8 <freeproc>
    8000330c:	00048513          	addi	x10,x9,0
    80003310:	e59fd0ef          	jal	x1,80001168 <release>
    80003314:	00202517          	auipc	x10,0x202
    80003318:	7cc50513          	addi	x10,x10,1996 # 80205ae0 <wait_lock>
    8000331c:	e4dfd0ef          	jal	x1,80001168 <release>
    80003320:	00098513          	addi	x10,x19,0
    80003324:	04813083          	ld	x1,72(x2)
    80003328:	04013403          	ld	x8,64(x2)
    8000332c:	03813483          	ld	x9,56(x2)
    80003330:	03013903          	ld	x18,48(x2)
    80003334:	02813983          	ld	x19,40(x2)
    80003338:	02013a03          	ld	x20,32(x2)
    8000333c:	01813a83          	ld	x21,24(x2)
    80003340:	01013b03          	ld	x22,16(x2)
    80003344:	00813b83          	ld	x23,8(x2)
    80003348:	05010113          	addi	x2,x2,80
    8000334c:	00008067          	jalr	x0,0(x1)
    80003350:	00048513          	addi	x10,x9,0
    80003354:	e15fd0ef          	jal	x1,80001168 <release>
    80003358:	00202517          	auipc	x10,0x202
    8000335c:	78850513          	addi	x10,x10,1928 # 80205ae0 <wait_lock>
    80003360:	e09fd0ef          	jal	x1,80001168 <release>
    80003364:	fff00993          	addi	x19,x0,-1
    80003368:	fb9ff06f          	jal	x0,80003320 <kwait+0x9c>
    8000336c:	16848493          	addi	x9,x9,360
    80003370:	03348663          	beq	x9,x19,8000339c <kwait+0x118>
    80003374:	0384b783          	ld	x15,56(x9)
    80003378:	ff279ae3          	bne	x15,x18,8000336c <kwait+0xe8>
    8000337c:	00048513          	addi	x10,x9,0
    80003380:	d11fd0ef          	jal	x1,80001090 <acquire>
    80003384:	0184a783          	lw	x15,24(x9)
    80003388:	f5478ee3          	beq	x15,x20,800032e4 <kwait+0x60>
    8000338c:	00048513          	addi	x10,x9,0
    80003390:	dd9fd0ef          	jal	x1,80001168 <release>
    80003394:	000a8713          	addi	x14,x21,0
    80003398:	fd5ff06f          	jal	x0,8000336c <kwait+0xe8>
    8000339c:	02070663          	beq	x14,x0,800033c8 <kwait+0x144>
    800033a0:	00090513          	addi	x10,x18,0
    800033a4:	e95ff0ef          	jal	x1,80003238 <killed>
    800033a8:	02051063          	bne	x10,x0,800033c8 <kwait+0x144>
    800033ac:	000b0593          	addi	x11,x22,0
    800033b0:	00090513          	addi	x10,x18,0
    800033b4:	b45ff0ef          	jal	x1,80002ef8 <sleep>
    800033b8:	00000713          	addi	x14,x0,0
    800033bc:	00203497          	auipc	x9,0x203
    800033c0:	b3c48493          	addi	x9,x9,-1220 # 80205ef8 <proc>
    800033c4:	fb1ff06f          	jal	x0,80003374 <kwait+0xf0>
    800033c8:	00202517          	auipc	x10,0x202
    800033cc:	71850513          	addi	x10,x10,1816 # 80205ae0 <wait_lock>
    800033d0:	d99fd0ef          	jal	x1,80001168 <release>
    800033d4:	fff00993          	addi	x19,x0,-1
    800033d8:	f49ff06f          	jal	x0,80003320 <kwait+0x9c>

00000000800033dc <either_copyout>:
    800033dc:	fd010113          	addi	x2,x2,-48
    800033e0:	02113423          	sd	x1,40(x2)
    800033e4:	02813023          	sd	x8,32(x2)
    800033e8:	00913c23          	sd	x9,24(x2)
    800033ec:	01213823          	sd	x18,16(x2)
    800033f0:	01313423          	sd	x19,8(x2)
    800033f4:	01413023          	sd	x20,0(x2)
    800033f8:	03010413          	addi	x8,x2,48
    800033fc:	00050493          	addi	x9,x10,0
    80003400:	00058a13          	addi	x20,x11,0
    80003404:	00060993          	addi	x19,x12,0 # 1000 <_binary_fs_img_size-0x1f3000>
    80003408:	00068913          	addi	x18,x13,0
    8000340c:	a14ff0ef          	jal	x1,80002620 <myproc>
    80003410:	02048c63          	beq	x9,x0,80003448 <either_copyout+0x6c>
    80003414:	00090693          	addi	x13,x18,0
    80003418:	00098613          	addi	x12,x19,0
    8000341c:	000a0593          	addi	x11,x20,0
    80003420:	05053503          	ld	x10,80(x10)
    80003424:	d79fe0ef          	jal	x1,8000219c <copyout>
    80003428:	02813083          	ld	x1,40(x2)
    8000342c:	02013403          	ld	x8,32(x2)
    80003430:	01813483          	ld	x9,24(x2)
    80003434:	01013903          	ld	x18,16(x2)
    80003438:	00813983          	ld	x19,8(x2)
    8000343c:	00013a03          	ld	x20,0(x2)
    80003440:	03010113          	addi	x2,x2,48
    80003444:	00008067          	jalr	x0,0(x1)
    80003448:	0009061b          	addiw	x12,x18,0
    8000344c:	00098593          	addi	x11,x19,0
    80003450:	000a0513          	addi	x10,x20,0
    80003454:	e75fd0ef          	jal	x1,800012c8 <memmove>
    80003458:	00048513          	addi	x10,x9,0
    8000345c:	fcdff06f          	jal	x0,80003428 <either_copyout+0x4c>

0000000080003460 <either_copyin>:
    80003460:	fd010113          	addi	x2,x2,-48
    80003464:	02113423          	sd	x1,40(x2)
    80003468:	02813023          	sd	x8,32(x2)
    8000346c:	00913c23          	sd	x9,24(x2)
    80003470:	01213823          	sd	x18,16(x2)
    80003474:	01313423          	sd	x19,8(x2)
    80003478:	01413023          	sd	x20,0(x2)
    8000347c:	03010413          	addi	x8,x2,48
    80003480:	00050a13          	addi	x20,x10,0
    80003484:	00058493          	addi	x9,x11,0
    80003488:	00060993          	addi	x19,x12,0
    8000348c:	00068913          	addi	x18,x13,0
    80003490:	990ff0ef          	jal	x1,80002620 <myproc>
    80003494:	02048c63          	beq	x9,x0,800034cc <either_copyin+0x6c>
    80003498:	00090693          	addi	x13,x18,0
    8000349c:	00098613          	addi	x12,x19,0
    800034a0:	000a0593          	addi	x11,x20,0
    800034a4:	05053503          	ld	x10,80(x10)
    800034a8:	e39fe0ef          	jal	x1,800022e0 <copyin>
    800034ac:	02813083          	ld	x1,40(x2)
    800034b0:	02013403          	ld	x8,32(x2)
    800034b4:	01813483          	ld	x9,24(x2)
    800034b8:	01013903          	ld	x18,16(x2)
    800034bc:	00813983          	ld	x19,8(x2)
    800034c0:	00013a03          	ld	x20,0(x2)
    800034c4:	03010113          	addi	x2,x2,48
    800034c8:	00008067          	jalr	x0,0(x1)
    800034cc:	0009061b          	addiw	x12,x18,0
    800034d0:	00098593          	addi	x11,x19,0
    800034d4:	000a0513          	addi	x10,x20,0
    800034d8:	df1fd0ef          	jal	x1,800012c8 <memmove>
    800034dc:	00048513          	addi	x10,x9,0
    800034e0:	fcdff06f          	jal	x0,800034ac <either_copyin+0x4c>

00000000800034e4 <procdump>:
    800034e4:	fb010113          	addi	x2,x2,-80
    800034e8:	04113423          	sd	x1,72(x2)
    800034ec:	04813023          	sd	x8,64(x2)
    800034f0:	02913c23          	sd	x9,56(x2)
    800034f4:	03213823          	sd	x18,48(x2)
    800034f8:	03313423          	sd	x19,40(x2)
    800034fc:	03413023          	sd	x20,32(x2)
    80003500:	01513c23          	sd	x21,24(x2)
    80003504:	01613823          	sd	x22,16(x2)
    80003508:	01713423          	sd	x23,8(x2)
    8000350c:	05010413          	addi	x8,x2,80
    80003510:	00006517          	auipc	x10,0x6
    80003514:	bd050513          	addi	x10,x10,-1072 # 800090e0 <etext+0xe0>
    80003518:	9b4fd0ef          	jal	x1,800006cc <printf>
    8000351c:	00203497          	auipc	x9,0x203
    80003520:	b3448493          	addi	x9,x9,-1228 # 80206050 <proc+0x158>
    80003524:	00208917          	auipc	x18,0x208
    80003528:	52c90913          	addi	x18,x18,1324 # 8020ba50 <bcache+0x140>
    8000352c:	00500b13          	addi	x22,x0,5
    80003530:	00006997          	auipc	x19,0x6
    80003534:	ee098993          	addi	x19,x19,-288 # 80009410 <etext+0x410>
    80003538:	00006a97          	auipc	x21,0x6
    8000353c:	ee0a8a93          	addi	x21,x21,-288 # 80009418 <etext+0x418>
    80003540:	00006a17          	auipc	x20,0x6
    80003544:	ba0a0a13          	addi	x20,x20,-1120 # 800090e0 <etext+0xe0>
    80003548:	00006b97          	auipc	x23,0x6
    8000354c:	348b8b93          	addi	x23,x23,840 # 80009890 <states.0>
    80003550:	0200006f          	jal	x0,80003570 <procdump+0x8c>
    80003554:	ed86a583          	lw	x11,-296(x13)
    80003558:	000a8513          	addi	x10,x21,0
    8000355c:	970fd0ef          	jal	x1,800006cc <printf>
    80003560:	000a0513          	addi	x10,x20,0
    80003564:	968fd0ef          	jal	x1,800006cc <printf>
    80003568:	16848493          	addi	x9,x9,360
    8000356c:	03248a63          	beq	x9,x18,800035a0 <procdump+0xbc>
    80003570:	00048693          	addi	x13,x9,0
    80003574:	ec04a783          	lw	x15,-320(x9)
    80003578:	fe0788e3          	beq	x15,x0,80003568 <procdump+0x84>
    8000357c:	00098613          	addi	x12,x19,0
    80003580:	fcfb6ae3          	bltu	x22,x15,80003554 <procdump+0x70>
    80003584:	02079713          	slli	x14,x15,0x20
    80003588:	01d75793          	srli	x15,x14,0x1d
    8000358c:	00fb87b3          	add	x15,x23,x15
    80003590:	0007b603          	ld	x12,0(x15)
    80003594:	fc0610e3          	bne	x12,x0,80003554 <procdump+0x70>
    80003598:	00098613          	addi	x12,x19,0
    8000359c:	fb9ff06f          	jal	x0,80003554 <procdump+0x70>
    800035a0:	04813083          	ld	x1,72(x2)
    800035a4:	04013403          	ld	x8,64(x2)
    800035a8:	03813483          	ld	x9,56(x2)
    800035ac:	03013903          	ld	x18,48(x2)
    800035b0:	02813983          	ld	x19,40(x2)
    800035b4:	02013a03          	ld	x20,32(x2)
    800035b8:	01813a83          	ld	x21,24(x2)
    800035bc:	01013b03          	ld	x22,16(x2)
    800035c0:	00813b83          	ld	x23,8(x2)
    800035c4:	05010113          	addi	x2,x2,80
    800035c8:	00008067          	jalr	x0,0(x1)

00000000800035cc <swtch>:
    800035cc:	00153023          	sd	x1,0(x10)
    800035d0:	00253423          	sd	x2,8(x10)
    800035d4:	00853823          	sd	x8,16(x10)
    800035d8:	00953c23          	sd	x9,24(x10)
    800035dc:	03253023          	sd	x18,32(x10)
    800035e0:	03353423          	sd	x19,40(x10)
    800035e4:	03453823          	sd	x20,48(x10)
    800035e8:	03553c23          	sd	x21,56(x10)
    800035ec:	05653023          	sd	x22,64(x10)
    800035f0:	05753423          	sd	x23,72(x10)
    800035f4:	05853823          	sd	x24,80(x10)
    800035f8:	05953c23          	sd	x25,88(x10)
    800035fc:	07a53023          	sd	x26,96(x10)
    80003600:	07b53423          	sd	x27,104(x10)
    80003604:	0005b083          	ld	x1,0(x11)
    80003608:	0085b103          	ld	x2,8(x11)
    8000360c:	0105b403          	ld	x8,16(x11)
    80003610:	0185b483          	ld	x9,24(x11)
    80003614:	0205b903          	ld	x18,32(x11)
    80003618:	0285b983          	ld	x19,40(x11)
    8000361c:	0305ba03          	ld	x20,48(x11)
    80003620:	0385ba83          	ld	x21,56(x11)
    80003624:	0405bb03          	ld	x22,64(x11)
    80003628:	0485bb83          	ld	x23,72(x11)
    8000362c:	0505bc03          	ld	x24,80(x11)
    80003630:	0585bc83          	ld	x25,88(x11)
    80003634:	0605bd03          	ld	x26,96(x11)
    80003638:	0685bd83          	ld	x27,104(x11)
    8000363c:	00008067          	jalr	x0,0(x1)

0000000080003640 <trapinit>:
    80003640:	ff010113          	addi	x2,x2,-16
    80003644:	00113423          	sd	x1,8(x2)
    80003648:	00813023          	sd	x8,0(x2)
    8000364c:	01010413          	addi	x8,x2,16
    80003650:	00006597          	auipc	x11,0x6
    80003654:	e0858593          	addi	x11,x11,-504 # 80009458 <etext+0x458>
    80003658:	00208517          	auipc	x10,0x208
    8000365c:	2a050513          	addi	x10,x10,672 # 8020b8f8 <tickslock>
    80003660:	94dfd0ef          	jal	x1,80000fac <initlock>
    80003664:	00813083          	ld	x1,8(x2)
    80003668:	00013403          	ld	x8,0(x2)
    8000366c:	01010113          	addi	x2,x2,16
    80003670:	00008067          	jalr	x0,0(x1)

0000000080003674 <trapinithart>:
    80003674:	ff010113          	addi	x2,x2,-16
    80003678:	00113423          	sd	x1,8(x2)
    8000367c:	00813023          	sd	x8,0(x2)
    80003680:	01010413          	addi	x8,x2,16
    80003684:	00004797          	auipc	x15,0x4
    80003688:	56c78793          	addi	x15,x15,1388 # 80007bf0 <kernelvec>
    8000368c:	10579073          	csrrw	x0,stvec,x15
    80003690:	00813083          	ld	x1,8(x2)
    80003694:	00013403          	ld	x8,0(x2)
    80003698:	01010113          	addi	x2,x2,16
    8000369c:	00008067          	jalr	x0,0(x1)

00000000800036a0 <prepare_return>:
    800036a0:	ff010113          	addi	x2,x2,-16
    800036a4:	00113423          	sd	x1,8(x2)
    800036a8:	00813023          	sd	x8,0(x2)
    800036ac:	01010413          	addi	x8,x2,16
    800036b0:	f71fe0ef          	jal	x1,80002620 <myproc>
    800036b4:	100027f3          	csrrs	x15,sstatus,x0
    800036b8:	ffd7f793          	andi	x15,x15,-3
    800036bc:	10079073          	csrrw	x0,sstatus,x15
    800036c0:	04000737          	lui	x14,0x4000
    800036c4:	fff70713          	addi	x14,x14,-1 # 3ffffff <_binary_fs_img_size+0x3e0bfff>
    800036c8:	00c71713          	slli	x14,x14,0xc
    800036cc:	00005797          	auipc	x15,0x5
    800036d0:	93478793          	addi	x15,x15,-1740 # 80008000 <_trampoline>
    800036d4:	00005697          	auipc	x13,0x5
    800036d8:	92c68693          	addi	x13,x13,-1748 # 80008000 <_trampoline>
    800036dc:	40d787b3          	sub	x15,x15,x13
    800036e0:	00e787b3          	add	x15,x15,x14
    800036e4:	10579073          	csrrw	x0,stvec,x15
    800036e8:	05853783          	ld	x15,88(x10)
    800036ec:	18002773          	csrrs	x14,satp,x0
    800036f0:	00e7b023          	sd	x14,0(x15)
    800036f4:	05853703          	ld	x14,88(x10)
    800036f8:	04053783          	ld	x15,64(x10)
    800036fc:	000016b7          	lui	x13,0x1
    80003700:	00d787b3          	add	x15,x15,x13
    80003704:	00f73423          	sd	x15,8(x14)
    80003708:	05853783          	ld	x15,88(x10)
    8000370c:	00000717          	auipc	x14,0x0
    80003710:	17070713          	addi	x14,x14,368 # 8000387c <usertrap>
    80003714:	00e7b823          	sd	x14,16(x15)
    80003718:	05853783          	ld	x15,88(x10)
    8000371c:	00020713          	addi	x14,x4,0 # 0 <_binary_fs_img_size-0x1f4000>
    80003720:	02e7b023          	sd	x14,32(x15)
    80003724:	100027f3          	csrrs	x15,sstatus,x0
    80003728:	eff7f793          	andi	x15,x15,-257
    8000372c:	0207e793          	ori	x15,x15,32
    80003730:	10079073          	csrrw	x0,sstatus,x15
    80003734:	05853783          	ld	x15,88(x10)
    80003738:	0187b783          	ld	x15,24(x15)
    8000373c:	14179073          	csrrw	x0,sepc,x15
    80003740:	00813083          	ld	x1,8(x2)
    80003744:	00013403          	ld	x8,0(x2)
    80003748:	01010113          	addi	x2,x2,16
    8000374c:	00008067          	jalr	x0,0(x1)

0000000080003750 <clockintr>:
    80003750:	ff010113          	addi	x2,x2,-16
    80003754:	00113423          	sd	x1,8(x2)
    80003758:	00813023          	sd	x8,0(x2)
    8000375c:	01010413          	addi	x8,x2,16
    80003760:	e61fe0ef          	jal	x1,800025c0 <cpuid>
    80003764:	02050463          	beq	x10,x0,8000378c <clockintr+0x3c>
    80003768:	c01027f3          	csrrs	x15,time,x0
    8000376c:	004c5737          	lui	x14,0x4c5
    80003770:	b4070713          	addi	x14,x14,-1216 # 4c4b40 <_binary_fs_img_size+0x2d0b40>
    80003774:	00e787b3          	add	x15,x15,x14
    80003778:	14d79073          	csrrw	x0,stimecmp,x15
    8000377c:	00813083          	ld	x1,8(x2)
    80003780:	00013403          	ld	x8,0(x2)
    80003784:	01010113          	addi	x2,x2,16
    80003788:	00008067          	jalr	x0,0(x1)
    8000378c:	00208517          	auipc	x10,0x208
    80003790:	16c50513          	addi	x10,x10,364 # 8020b8f8 <tickslock>
    80003794:	8fdfd0ef          	jal	x1,80001090 <acquire>
    80003798:	001fa717          	auipc	x14,0x1fa
    8000379c:	22870713          	addi	x14,x14,552 # 801fd9c0 <ticks>
    800037a0:	00072783          	lw	x15,0(x14)
    800037a4:	0017879b          	addiw	x15,x15,1
    800037a8:	00f72023          	sw	x15,0(x14)
    800037ac:	00070513          	addi	x10,x14,0
    800037b0:	fc0ff0ef          	jal	x1,80002f70 <wakeup>
    800037b4:	00208517          	auipc	x10,0x208
    800037b8:	14450513          	addi	x10,x10,324 # 8020b8f8 <tickslock>
    800037bc:	9adfd0ef          	jal	x1,80001168 <release>
    800037c0:	fa9ff06f          	jal	x0,80003768 <clockintr+0x18>

00000000800037c4 <devintr>:
    800037c4:	fe010113          	addi	x2,x2,-32
    800037c8:	00113c23          	sd	x1,24(x2)
    800037cc:	00813823          	sd	x8,16(x2)
    800037d0:	02010413          	addi	x8,x2,32
    800037d4:	14202773          	csrrs	x14,scause,x0
    800037d8:	fff00793          	addi	x15,x0,-1
    800037dc:	03f79793          	slli	x15,x15,0x3f
    800037e0:	00978793          	addi	x15,x15,9
    800037e4:	02f70463          	beq	x14,x15,8000380c <devintr+0x48>
    800037e8:	fff00793          	addi	x15,x0,-1
    800037ec:	03f79793          	slli	x15,x15,0x3f
    800037f0:	00578793          	addi	x15,x15,5
    800037f4:	00000513          	addi	x10,x0,0
    800037f8:	06f70c63          	beq	x14,x15,80003870 <devintr+0xac>
    800037fc:	01813083          	ld	x1,24(x2)
    80003800:	01013403          	ld	x8,16(x2)
    80003804:	02010113          	addi	x2,x2,32
    80003808:	00008067          	jalr	x0,0(x1)
    8000380c:	00913423          	sd	x9,8(x2)
    80003810:	4f8040ef          	jal	x1,80007d08 <plic_claim>
    80003814:	00050713          	addi	x14,x10,0
    80003818:	00050493          	addi	x9,x10,0
    8000381c:	00a00793          	addi	x15,x0,10
    80003820:	00f50e63          	beq	x10,x15,8000383c <devintr+0x78>
    80003824:	00100793          	addi	x15,x0,1
    80003828:	00f50e63          	beq	x10,x15,80003844 <devintr+0x80>
    8000382c:	00100513          	addi	x10,x0,1
    80003830:	00071e63          	bne	x14,x0,8000384c <devintr+0x88>
    80003834:	00813483          	ld	x9,8(x2)
    80003838:	fc5ff06f          	jal	x0,800037fc <devintr+0x38>
    8000383c:	cd8fd0ef          	jal	x1,80000d14 <uartintr>
    80003840:	01c0006f          	jal	x0,8000385c <devintr+0x98>
    80003844:	698040ef          	jal	x1,80007edc <virtio_disk_intr>
    80003848:	0140006f          	jal	x0,8000385c <devintr+0x98>
    8000384c:	00070593          	addi	x11,x14,0
    80003850:	00006517          	auipc	x10,0x6
    80003854:	c1050513          	addi	x10,x10,-1008 # 80009460 <etext+0x460>
    80003858:	e75fc0ef          	jal	x1,800006cc <printf>
    8000385c:	00048513          	addi	x10,x9,0
    80003860:	4dc040ef          	jal	x1,80007d3c <plic_complete>
    80003864:	00100513          	addi	x10,x0,1
    80003868:	00813483          	ld	x9,8(x2)
    8000386c:	f91ff06f          	jal	x0,800037fc <devintr+0x38>
    80003870:	ee1ff0ef          	jal	x1,80003750 <clockintr>
    80003874:	00200513          	addi	x10,x0,2
    80003878:	f85ff06f          	jal	x0,800037fc <devintr+0x38>

000000008000387c <usertrap>:
    8000387c:	fe010113          	addi	x2,x2,-32
    80003880:	00113c23          	sd	x1,24(x2)
    80003884:	00813823          	sd	x8,16(x2)
    80003888:	00913423          	sd	x9,8(x2)
    8000388c:	01213023          	sd	x18,0(x2)
    80003890:	02010413          	addi	x8,x2,32
    80003894:	100027f3          	csrrs	x15,sstatus,x0
    80003898:	1007f793          	andi	x15,x15,256
    8000389c:	08079463          	bne	x15,x0,80003924 <usertrap+0xa8>
    800038a0:	00004797          	auipc	x15,0x4
    800038a4:	35078793          	addi	x15,x15,848 # 80007bf0 <kernelvec>
    800038a8:	10579073          	csrrw	x0,stvec,x15
    800038ac:	d75fe0ef          	jal	x1,80002620 <myproc>
    800038b0:	00050493          	addi	x9,x10,0
    800038b4:	05853783          	ld	x15,88(x10)
    800038b8:	14102773          	csrrs	x14,sepc,x0
    800038bc:	00e7bc23          	sd	x14,24(x15)
    800038c0:	14202773          	csrrs	x14,scause,x0
    800038c4:	00800793          	addi	x15,x0,8
    800038c8:	06f70463          	beq	x14,x15,80003930 <usertrap+0xb4>
    800038cc:	ef9ff0ef          	jal	x1,800037c4 <devintr>
    800038d0:	00050913          	addi	x18,x10,0
    800038d4:	0e051663          	bne	x10,x0,800039c0 <usertrap+0x144>
    800038d8:	14202773          	csrrs	x14,scause,x0
    800038dc:	00f00793          	addi	x15,x0,15
    800038e0:	0cf70063          	beq	x14,x15,800039a0 <usertrap+0x124>
    800038e4:	14202773          	csrrs	x14,scause,x0
    800038e8:	00d00793          	addi	x15,x0,13
    800038ec:	0af70a63          	beq	x14,x15,800039a0 <usertrap+0x124>
    800038f0:	142025f3          	csrrs	x11,scause,x0
    800038f4:	0304a603          	lw	x12,48(x9)
    800038f8:	00006517          	auipc	x10,0x6
    800038fc:	ba850513          	addi	x10,x10,-1112 # 800094a0 <etext+0x4a0>
    80003900:	dcdfc0ef          	jal	x1,800006cc <printf>
    80003904:	141025f3          	csrrs	x11,sepc,x0
    80003908:	14302673          	csrrs	x12,stval,x0
    8000390c:	00006517          	auipc	x10,0x6
    80003910:	bc450513          	addi	x10,x10,-1084 # 800094d0 <etext+0x4d0>
    80003914:	db9fc0ef          	jal	x1,800006cc <printf>
    80003918:	00048513          	addi	x10,x9,0
    8000391c:	8ddff0ef          	jal	x1,800031f8 <setkilled>
    80003920:	0380006f          	jal	x0,80003958 <usertrap+0xdc>
    80003924:	00006517          	auipc	x10,0x6
    80003928:	b5c50513          	addi	x10,x10,-1188 # 80009480 <etext+0x480>
    8000392c:	9c0fd0ef          	jal	x1,80000aec <panic>
    80003930:	909ff0ef          	jal	x1,80003238 <killed>
    80003934:	06051063          	bne	x10,x0,80003994 <usertrap+0x118>
    80003938:	0584b703          	ld	x14,88(x9)
    8000393c:	01873783          	ld	x15,24(x14)
    80003940:	00478793          	addi	x15,x15,4
    80003944:	00f73c23          	sd	x15,24(x14)
    80003948:	100027f3          	csrrs	x15,sstatus,x0
    8000394c:	0027e793          	ori	x15,x15,2
    80003950:	10079073          	csrrw	x0,sstatus,x15
    80003954:	394000ef          	jal	x1,80003ce8 <syscall>
    80003958:	00048513          	addi	x10,x9,0
    8000395c:	8ddff0ef          	jal	x1,80003238 <killed>
    80003960:	06051863          	bne	x10,x0,800039d0 <usertrap+0x154>
    80003964:	d3dff0ef          	jal	x1,800036a0 <prepare_return>
    80003968:	0504b503          	ld	x10,80(x9)
    8000396c:	00c55513          	srli	x10,x10,0xc
    80003970:	fff00793          	addi	x15,x0,-1
    80003974:	03f79793          	slli	x15,x15,0x3f
    80003978:	00f56533          	or	x10,x10,x15
    8000397c:	01813083          	ld	x1,24(x2)
    80003980:	01013403          	ld	x8,16(x2)
    80003984:	00813483          	ld	x9,8(x2)
    80003988:	00013903          	ld	x18,0(x2)
    8000398c:	02010113          	addi	x2,x2,32
    80003990:	00008067          	jalr	x0,0(x1)
    80003994:	fff00513          	addi	x10,x0,-1
    80003998:	ef8ff0ef          	jal	x1,80003090 <kexit>
    8000399c:	f9dff06f          	jal	x0,80003938 <usertrap+0xbc>
    800039a0:	143025f3          	csrrs	x11,stval,x0
    800039a4:	14202673          	csrrs	x12,scause,x0
    800039a8:	ff360613          	addi	x12,x12,-13
    800039ac:	00163613          	sltiu	x12,x12,1
    800039b0:	0504b503          	ld	x10,80(x9)
    800039b4:	f08fe0ef          	jal	x1,800020bc <vmfault>
    800039b8:	fa0510e3          	bne	x10,x0,80003958 <usertrap+0xdc>
    800039bc:	f35ff06f          	jal	x0,800038f0 <usertrap+0x74>
    800039c0:	00048513          	addi	x10,x9,0
    800039c4:	875ff0ef          	jal	x1,80003238 <killed>
    800039c8:	00050a63          	beq	x10,x0,800039dc <usertrap+0x160>
    800039cc:	0080006f          	jal	x0,800039d4 <usertrap+0x158>
    800039d0:	00000913          	addi	x18,x0,0
    800039d4:	fff00513          	addi	x10,x0,-1
    800039d8:	eb8ff0ef          	jal	x1,80003090 <kexit>
    800039dc:	00200793          	addi	x15,x0,2
    800039e0:	f8f912e3          	bne	x18,x15,80003964 <usertrap+0xe8>
    800039e4:	cccff0ef          	jal	x1,80002eb0 <yield>
    800039e8:	f7dff06f          	jal	x0,80003964 <usertrap+0xe8>

00000000800039ec <kerneltrap>:
    800039ec:	fd010113          	addi	x2,x2,-48
    800039f0:	02113423          	sd	x1,40(x2)
    800039f4:	02813023          	sd	x8,32(x2)
    800039f8:	00913c23          	sd	x9,24(x2)
    800039fc:	01213823          	sd	x18,16(x2)
    80003a00:	01313423          	sd	x19,8(x2)
    80003a04:	03010413          	addi	x8,x2,48
    80003a08:	14102973          	csrrs	x18,sepc,x0
    80003a0c:	100024f3          	csrrs	x9,sstatus,x0
    80003a10:	142027f3          	csrrs	x15,scause,x0
    80003a14:	00078993          	addi	x19,x15,0
    80003a18:	1004f793          	andi	x15,x9,256
    80003a1c:	04078263          	beq	x15,x0,80003a60 <kerneltrap+0x74>
    80003a20:	100027f3          	csrrs	x15,sstatus,x0
    80003a24:	0027f793          	andi	x15,x15,2
    80003a28:	04079263          	bne	x15,x0,80003a6c <kerneltrap+0x80>
    80003a2c:	d99ff0ef          	jal	x1,800037c4 <devintr>
    80003a30:	04050463          	beq	x10,x0,80003a78 <kerneltrap+0x8c>
    80003a34:	00200793          	addi	x15,x0,2
    80003a38:	06f50263          	beq	x10,x15,80003a9c <kerneltrap+0xb0>
    80003a3c:	14191073          	csrrw	x0,sepc,x18
    80003a40:	10049073          	csrrw	x0,sstatus,x9
    80003a44:	02813083          	ld	x1,40(x2)
    80003a48:	02013403          	ld	x8,32(x2)
    80003a4c:	01813483          	ld	x9,24(x2)
    80003a50:	01013903          	ld	x18,16(x2)
    80003a54:	00813983          	ld	x19,8(x2)
    80003a58:	03010113          	addi	x2,x2,48
    80003a5c:	00008067          	jalr	x0,0(x1)
    80003a60:	00006517          	auipc	x10,0x6
    80003a64:	a9850513          	addi	x10,x10,-1384 # 800094f8 <etext+0x4f8>
    80003a68:	884fd0ef          	jal	x1,80000aec <panic>
    80003a6c:	00006517          	auipc	x10,0x6
    80003a70:	ab450513          	addi	x10,x10,-1356 # 80009520 <etext+0x520>
    80003a74:	878fd0ef          	jal	x1,80000aec <panic>
    80003a78:	14102673          	csrrs	x12,sepc,x0
    80003a7c:	143026f3          	csrrs	x13,stval,x0
    80003a80:	00098593          	addi	x11,x19,0
    80003a84:	00006517          	auipc	x10,0x6
    80003a88:	abc50513          	addi	x10,x10,-1348 # 80009540 <etext+0x540>
    80003a8c:	c41fc0ef          	jal	x1,800006cc <printf>
    80003a90:	00006517          	auipc	x10,0x6
    80003a94:	ad850513          	addi	x10,x10,-1320 # 80009568 <etext+0x568>
    80003a98:	854fd0ef          	jal	x1,80000aec <panic>
    80003a9c:	b85fe0ef          	jal	x1,80002620 <myproc>
    80003aa0:	f8050ee3          	beq	x10,x0,80003a3c <kerneltrap+0x50>
    80003aa4:	c0cff0ef          	jal	x1,80002eb0 <yield>
    80003aa8:	f95ff06f          	jal	x0,80003a3c <kerneltrap+0x50>

0000000080003aac <argraw>:
    80003aac:	fe010113          	addi	x2,x2,-32
    80003ab0:	00113c23          	sd	x1,24(x2)
    80003ab4:	00813823          	sd	x8,16(x2)
    80003ab8:	00913423          	sd	x9,8(x2)
    80003abc:	02010413          	addi	x8,x2,32
    80003ac0:	00050493          	addi	x9,x10,0
    80003ac4:	b5dfe0ef          	jal	x1,80002620 <myproc>
    80003ac8:	00500793          	addi	x15,x0,5
    80003acc:	0697ec63          	bltu	x15,x9,80003b44 <argraw+0x98>
    80003ad0:	00249493          	slli	x9,x9,0x2
    80003ad4:	00006717          	auipc	x14,0x6
    80003ad8:	dec70713          	addi	x14,x14,-532 # 800098c0 <states.0+0x30>
    80003adc:	00e484b3          	add	x9,x9,x14
    80003ae0:	0004a783          	lw	x15,0(x9)
    80003ae4:	00e787b3          	add	x15,x15,x14
    80003ae8:	00078067          	jalr	x0,0(x15)
    80003aec:	05853783          	ld	x15,88(x10)
    80003af0:	0707b503          	ld	x10,112(x15)
    80003af4:	01813083          	ld	x1,24(x2)
    80003af8:	01013403          	ld	x8,16(x2)
    80003afc:	00813483          	ld	x9,8(x2)
    80003b00:	02010113          	addi	x2,x2,32
    80003b04:	00008067          	jalr	x0,0(x1)
    80003b08:	05853783          	ld	x15,88(x10)
    80003b0c:	0787b503          	ld	x10,120(x15)
    80003b10:	fe5ff06f          	jal	x0,80003af4 <argraw+0x48>
    80003b14:	05853783          	ld	x15,88(x10)
    80003b18:	0807b503          	ld	x10,128(x15)
    80003b1c:	fd9ff06f          	jal	x0,80003af4 <argraw+0x48>
    80003b20:	05853783          	ld	x15,88(x10)
    80003b24:	0887b503          	ld	x10,136(x15)
    80003b28:	fcdff06f          	jal	x0,80003af4 <argraw+0x48>
    80003b2c:	05853783          	ld	x15,88(x10)
    80003b30:	0907b503          	ld	x10,144(x15)
    80003b34:	fc1ff06f          	jal	x0,80003af4 <argraw+0x48>
    80003b38:	05853783          	ld	x15,88(x10)
    80003b3c:	0987b503          	ld	x10,152(x15)
    80003b40:	fb5ff06f          	jal	x0,80003af4 <argraw+0x48>
    80003b44:	00006517          	auipc	x10,0x6
    80003b48:	a3450513          	addi	x10,x10,-1484 # 80009578 <etext+0x578>
    80003b4c:	fa1fc0ef          	jal	x1,80000aec <panic>

0000000080003b50 <fetchaddr>:
    80003b50:	fe010113          	addi	x2,x2,-32
    80003b54:	00113c23          	sd	x1,24(x2)
    80003b58:	00813823          	sd	x8,16(x2)
    80003b5c:	00913423          	sd	x9,8(x2)
    80003b60:	01213023          	sd	x18,0(x2)
    80003b64:	02010413          	addi	x8,x2,32
    80003b68:	00050493          	addi	x9,x10,0
    80003b6c:	00058913          	addi	x18,x11,0
    80003b70:	ab1fe0ef          	jal	x1,80002620 <myproc>
    80003b74:	04853783          	ld	x15,72(x10)
    80003b78:	04f4f063          	bgeu	x9,x15,80003bb8 <fetchaddr+0x68>
    80003b7c:	00848713          	addi	x14,x9,8
    80003b80:	04e7e063          	bltu	x15,x14,80003bc0 <fetchaddr+0x70>
    80003b84:	00800693          	addi	x13,x0,8
    80003b88:	00048613          	addi	x12,x9,0
    80003b8c:	00090593          	addi	x11,x18,0
    80003b90:	05053503          	ld	x10,80(x10)
    80003b94:	f4cfe0ef          	jal	x1,800022e0 <copyin>
    80003b98:	00a03533          	sltu	x10,x0,x10
    80003b9c:	40a0053b          	subw	x10,x0,x10
    80003ba0:	01813083          	ld	x1,24(x2)
    80003ba4:	01013403          	ld	x8,16(x2)
    80003ba8:	00813483          	ld	x9,8(x2)
    80003bac:	00013903          	ld	x18,0(x2)
    80003bb0:	02010113          	addi	x2,x2,32
    80003bb4:	00008067          	jalr	x0,0(x1)
    80003bb8:	fff00513          	addi	x10,x0,-1
    80003bbc:	fe5ff06f          	jal	x0,80003ba0 <fetchaddr+0x50>
    80003bc0:	fff00513          	addi	x10,x0,-1
    80003bc4:	fddff06f          	jal	x0,80003ba0 <fetchaddr+0x50>

0000000080003bc8 <fetchstr>:
    80003bc8:	fd010113          	addi	x2,x2,-48
    80003bcc:	02113423          	sd	x1,40(x2)
    80003bd0:	02813023          	sd	x8,32(x2)
    80003bd4:	00913c23          	sd	x9,24(x2)
    80003bd8:	01213823          	sd	x18,16(x2)
    80003bdc:	01313423          	sd	x19,8(x2)
    80003be0:	03010413          	addi	x8,x2,48
    80003be4:	00050993          	addi	x19,x10,0
    80003be8:	00058493          	addi	x9,x11,0
    80003bec:	00060913          	addi	x18,x12,0
    80003bf0:	a31fe0ef          	jal	x1,80002620 <myproc>
    80003bf4:	00090693          	addi	x13,x18,0
    80003bf8:	00098613          	addi	x12,x19,0
    80003bfc:	00048593          	addi	x11,x9,0
    80003c00:	05053503          	ld	x10,80(x10)
    80003c04:	b58fe0ef          	jal	x1,80001f5c <copyinstr>
    80003c08:	02054463          	blt	x10,x0,80003c30 <fetchstr+0x68>
    80003c0c:	00048513          	addi	x10,x9,0
    80003c10:	889fd0ef          	jal	x1,80001498 <strlen>
    80003c14:	02813083          	ld	x1,40(x2)
    80003c18:	02013403          	ld	x8,32(x2)
    80003c1c:	01813483          	ld	x9,24(x2)
    80003c20:	01013903          	ld	x18,16(x2)
    80003c24:	00813983          	ld	x19,8(x2)
    80003c28:	03010113          	addi	x2,x2,48
    80003c2c:	00008067          	jalr	x0,0(x1)
    80003c30:	fff00513          	addi	x10,x0,-1
    80003c34:	fe1ff06f          	jal	x0,80003c14 <fetchstr+0x4c>

0000000080003c38 <argint>:
    80003c38:	fe010113          	addi	x2,x2,-32
    80003c3c:	00113c23          	sd	x1,24(x2)
    80003c40:	00813823          	sd	x8,16(x2)
    80003c44:	00913423          	sd	x9,8(x2)
    80003c48:	02010413          	addi	x8,x2,32
    80003c4c:	00058493          	addi	x9,x11,0
    80003c50:	e5dff0ef          	jal	x1,80003aac <argraw>
    80003c54:	00a4a023          	sw	x10,0(x9)
    80003c58:	01813083          	ld	x1,24(x2)
    80003c5c:	01013403          	ld	x8,16(x2)
    80003c60:	00813483          	ld	x9,8(x2)
    80003c64:	02010113          	addi	x2,x2,32
    80003c68:	00008067          	jalr	x0,0(x1)

0000000080003c6c <argaddr>:
    80003c6c:	fe010113          	addi	x2,x2,-32
    80003c70:	00113c23          	sd	x1,24(x2)
    80003c74:	00813823          	sd	x8,16(x2)
    80003c78:	00913423          	sd	x9,8(x2)
    80003c7c:	02010413          	addi	x8,x2,32
    80003c80:	00058493          	addi	x9,x11,0
    80003c84:	e29ff0ef          	jal	x1,80003aac <argraw>
    80003c88:	00a4b023          	sd	x10,0(x9)
    80003c8c:	01813083          	ld	x1,24(x2)
    80003c90:	01013403          	ld	x8,16(x2)
    80003c94:	00813483          	ld	x9,8(x2)
    80003c98:	02010113          	addi	x2,x2,32
    80003c9c:	00008067          	jalr	x0,0(x1)

0000000080003ca0 <argstr>:
    80003ca0:	fe010113          	addi	x2,x2,-32
    80003ca4:	00113c23          	sd	x1,24(x2)
    80003ca8:	00813823          	sd	x8,16(x2)
    80003cac:	00913423          	sd	x9,8(x2)
    80003cb0:	01213023          	sd	x18,0(x2)
    80003cb4:	02010413          	addi	x8,x2,32
    80003cb8:	00058913          	addi	x18,x11,0
    80003cbc:	00060493          	addi	x9,x12,0
    80003cc0:	dedff0ef          	jal	x1,80003aac <argraw>
    80003cc4:	00048613          	addi	x12,x9,0
    80003cc8:	00090593          	addi	x11,x18,0
    80003ccc:	efdff0ef          	jal	x1,80003bc8 <fetchstr>
    80003cd0:	01813083          	ld	x1,24(x2)
    80003cd4:	01013403          	ld	x8,16(x2)
    80003cd8:	00813483          	ld	x9,8(x2)
    80003cdc:	00013903          	ld	x18,0(x2)
    80003ce0:	02010113          	addi	x2,x2,32
    80003ce4:	00008067          	jalr	x0,0(x1)

0000000080003ce8 <syscall>:
    80003ce8:	fe010113          	addi	x2,x2,-32
    80003cec:	00113c23          	sd	x1,24(x2)
    80003cf0:	00813823          	sd	x8,16(x2)
    80003cf4:	00913423          	sd	x9,8(x2)
    80003cf8:	01213023          	sd	x18,0(x2)
    80003cfc:	02010413          	addi	x8,x2,32
    80003d00:	921fe0ef          	jal	x1,80002620 <myproc>
    80003d04:	00050493          	addi	x9,x10,0
    80003d08:	05853903          	ld	x18,88(x10)
    80003d0c:	0a893783          	ld	x15,168(x18)
    80003d10:	0007869b          	addiw	x13,x15,0
    80003d14:	fff7879b          	addiw	x15,x15,-1
    80003d18:	01400713          	addi	x14,x0,20
    80003d1c:	02f76463          	bltu	x14,x15,80003d44 <syscall+0x5c>
    80003d20:	00369713          	slli	x14,x13,0x3
    80003d24:	00006797          	auipc	x15,0x6
    80003d28:	bb478793          	addi	x15,x15,-1100 # 800098d8 <syscalls>
    80003d2c:	00e787b3          	add	x15,x15,x14
    80003d30:	0007b783          	ld	x15,0(x15)
    80003d34:	00078863          	beq	x15,x0,80003d44 <syscall+0x5c>
    80003d38:	000780e7          	jalr	x1,0(x15)
    80003d3c:	06a93823          	sd	x10,112(x18)
    80003d40:	0240006f          	jal	x0,80003d64 <syscall+0x7c>
    80003d44:	15848613          	addi	x12,x9,344
    80003d48:	0304a583          	lw	x11,48(x9)
    80003d4c:	00006517          	auipc	x10,0x6
    80003d50:	83450513          	addi	x10,x10,-1996 # 80009580 <etext+0x580>
    80003d54:	979fc0ef          	jal	x1,800006cc <printf>
    80003d58:	0584b783          	ld	x15,88(x9)
    80003d5c:	fff00713          	addi	x14,x0,-1
    80003d60:	06e7b823          	sd	x14,112(x15)
    80003d64:	01813083          	ld	x1,24(x2)
    80003d68:	01013403          	ld	x8,16(x2)
    80003d6c:	00813483          	ld	x9,8(x2)
    80003d70:	00013903          	ld	x18,0(x2)
    80003d74:	02010113          	addi	x2,x2,32
    80003d78:	00008067          	jalr	x0,0(x1)

0000000080003d7c <sys_exit>:
    80003d7c:	fe010113          	addi	x2,x2,-32
    80003d80:	00113c23          	sd	x1,24(x2)
    80003d84:	00813823          	sd	x8,16(x2)
    80003d88:	02010413          	addi	x8,x2,32
    80003d8c:	fec40593          	addi	x11,x8,-20
    80003d90:	00000513          	addi	x10,x0,0
    80003d94:	ea5ff0ef          	jal	x1,80003c38 <argint>
    80003d98:	fec42503          	lw	x10,-20(x8)
    80003d9c:	af4ff0ef          	jal	x1,80003090 <kexit>
    80003da0:	00000513          	addi	x10,x0,0
    80003da4:	01813083          	ld	x1,24(x2)
    80003da8:	01013403          	ld	x8,16(x2)
    80003dac:	02010113          	addi	x2,x2,32
    80003db0:	00008067          	jalr	x0,0(x1)

0000000080003db4 <sys_getpid>:
    80003db4:	ff010113          	addi	x2,x2,-16
    80003db8:	00113423          	sd	x1,8(x2)
    80003dbc:	00813023          	sd	x8,0(x2)
    80003dc0:	01010413          	addi	x8,x2,16
    80003dc4:	85dfe0ef          	jal	x1,80002620 <myproc>
    80003dc8:	03052503          	lw	x10,48(x10)
    80003dcc:	00813083          	ld	x1,8(x2)
    80003dd0:	00013403          	ld	x8,0(x2)
    80003dd4:	01010113          	addi	x2,x2,16
    80003dd8:	00008067          	jalr	x0,0(x1)

0000000080003ddc <sys_fork>:
    80003ddc:	ff010113          	addi	x2,x2,-16
    80003de0:	00113423          	sd	x1,8(x2)
    80003de4:	00813023          	sd	x8,0(x2)
    80003de8:	01010413          	addi	x8,x2,16
    80003dec:	d5dfe0ef          	jal	x1,80002b48 <kfork>
    80003df0:	00813083          	ld	x1,8(x2)
    80003df4:	00013403          	ld	x8,0(x2)
    80003df8:	01010113          	addi	x2,x2,16
    80003dfc:	00008067          	jalr	x0,0(x1)

0000000080003e00 <sys_wait>:
    80003e00:	fe010113          	addi	x2,x2,-32
    80003e04:	00113c23          	sd	x1,24(x2)
    80003e08:	00813823          	sd	x8,16(x2)
    80003e0c:	02010413          	addi	x8,x2,32
    80003e10:	fe840593          	addi	x11,x8,-24
    80003e14:	00000513          	addi	x10,x0,0
    80003e18:	e55ff0ef          	jal	x1,80003c6c <argaddr>
    80003e1c:	fe843503          	ld	x10,-24(x8)
    80003e20:	c64ff0ef          	jal	x1,80003284 <kwait>
    80003e24:	01813083          	ld	x1,24(x2)
    80003e28:	01013403          	ld	x8,16(x2)
    80003e2c:	02010113          	addi	x2,x2,32
    80003e30:	00008067          	jalr	x0,0(x1)

0000000080003e34 <sys_sbrk>:
    80003e34:	fd010113          	addi	x2,x2,-48
    80003e38:	02113423          	sd	x1,40(x2)
    80003e3c:	02813023          	sd	x8,32(x2)
    80003e40:	00913c23          	sd	x9,24(x2)
    80003e44:	03010413          	addi	x8,x2,48
    80003e48:	fd840593          	addi	x11,x8,-40
    80003e4c:	00000513          	addi	x10,x0,0
    80003e50:	de9ff0ef          	jal	x1,80003c38 <argint>
    80003e54:	fdc40593          	addi	x11,x8,-36
    80003e58:	00100513          	addi	x10,x0,1
    80003e5c:	dddff0ef          	jal	x1,80003c38 <argint>
    80003e60:	fc0fe0ef          	jal	x1,80002620 <myproc>
    80003e64:	04853483          	ld	x9,72(x10)
    80003e68:	fdc42703          	lw	x14,-36(x8)
    80003e6c:	00100793          	addi	x15,x0,1
    80003e70:	02f70e63          	beq	x14,x15,80003eac <sys_sbrk+0x78>
    80003e74:	fd842783          	lw	x15,-40(x8)
    80003e78:	0207ca63          	blt	x15,x0,80003eac <sys_sbrk+0x78>
    80003e7c:	009787b3          	add	x15,x15,x9
    80003e80:	02000737          	lui	x14,0x2000
    80003e84:	fff70713          	addi	x14,x14,-1 # 1ffffff <_binary_fs_img_size+0x1e0bfff>
    80003e88:	00d71713          	slli	x14,x14,0xd
    80003e8c:	04f76663          	bltu	x14,x15,80003ed8 <sys_sbrk+0xa4>
    80003e90:	0497e463          	bltu	x15,x9,80003ed8 <sys_sbrk+0xa4>
    80003e94:	f8cfe0ef          	jal	x1,80002620 <myproc>
    80003e98:	fd842703          	lw	x14,-40(x8)
    80003e9c:	04853783          	ld	x15,72(x10)
    80003ea0:	00e787b3          	add	x15,x15,x14
    80003ea4:	04f53423          	sd	x15,72(x10)
    80003ea8:	0100006f          	jal	x0,80003eb8 <sys_sbrk+0x84>
    80003eac:	fd842503          	lw	x10,-40(x8)
    80003eb0:	bfdfe0ef          	jal	x1,80002aac <growproc>
    80003eb4:	00054e63          	blt	x10,x0,80003ed0 <sys_sbrk+0x9c>
    80003eb8:	00048513          	addi	x10,x9,0
    80003ebc:	02813083          	ld	x1,40(x2)
    80003ec0:	02013403          	ld	x8,32(x2)
    80003ec4:	01813483          	ld	x9,24(x2)
    80003ec8:	03010113          	addi	x2,x2,48
    80003ecc:	00008067          	jalr	x0,0(x1)
    80003ed0:	fff00493          	addi	x9,x0,-1
    80003ed4:	fe5ff06f          	jal	x0,80003eb8 <sys_sbrk+0x84>
    80003ed8:	fff00493          	addi	x9,x0,-1
    80003edc:	fddff06f          	jal	x0,80003eb8 <sys_sbrk+0x84>

0000000080003ee0 <sys_pause>:
    80003ee0:	fc010113          	addi	x2,x2,-64
    80003ee4:	02113c23          	sd	x1,56(x2)
    80003ee8:	02813823          	sd	x8,48(x2)
    80003eec:	04010413          	addi	x8,x2,64
    80003ef0:	fcc40593          	addi	x11,x8,-52
    80003ef4:	00000513          	addi	x10,x0,0
    80003ef8:	d41ff0ef          	jal	x1,80003c38 <argint>
    80003efc:	fcc42783          	lw	x15,-52(x8)
    80003f00:	0807c863          	blt	x15,x0,80003f90 <sys_pause+0xb0>
    80003f04:	00208517          	auipc	x10,0x208
    80003f08:	9f450513          	addi	x10,x10,-1548 # 8020b8f8 <tickslock>
    80003f0c:	984fd0ef          	jal	x1,80001090 <acquire>
    80003f10:	fcc42783          	lw	x15,-52(x8)
    80003f14:	04078e63          	beq	x15,x0,80003f70 <sys_pause+0x90>
    80003f18:	02913423          	sd	x9,40(x2)
    80003f1c:	03213023          	sd	x18,32(x2)
    80003f20:	01313c23          	sd	x19,24(x2)
    80003f24:	001fa997          	auipc	x19,0x1fa
    80003f28:	a9c9a983          	lw	x19,-1380(x19) # 801fd9c0 <ticks>
    80003f2c:	00208917          	auipc	x18,0x208
    80003f30:	9cc90913          	addi	x18,x18,-1588 # 8020b8f8 <tickslock>
    80003f34:	001fa497          	auipc	x9,0x1fa
    80003f38:	a8c48493          	addi	x9,x9,-1396 # 801fd9c0 <ticks>
    80003f3c:	ee4fe0ef          	jal	x1,80002620 <myproc>
    80003f40:	af8ff0ef          	jal	x1,80003238 <killed>
    80003f44:	04051a63          	bne	x10,x0,80003f98 <sys_pause+0xb8>
    80003f48:	00090593          	addi	x11,x18,0
    80003f4c:	00048513          	addi	x10,x9,0
    80003f50:	fa9fe0ef          	jal	x1,80002ef8 <sleep>
    80003f54:	0004a783          	lw	x15,0(x9)
    80003f58:	413787bb          	subw	x15,x15,x19
    80003f5c:	fcc42703          	lw	x14,-52(x8)
    80003f60:	fce7eee3          	bltu	x15,x14,80003f3c <sys_pause+0x5c>
    80003f64:	02813483          	ld	x9,40(x2)
    80003f68:	02013903          	ld	x18,32(x2)
    80003f6c:	01813983          	ld	x19,24(x2)
    80003f70:	00208517          	auipc	x10,0x208
    80003f74:	98850513          	addi	x10,x10,-1656 # 8020b8f8 <tickslock>
    80003f78:	9f0fd0ef          	jal	x1,80001168 <release>
    80003f7c:	00000513          	addi	x10,x0,0
    80003f80:	03813083          	ld	x1,56(x2)
    80003f84:	03013403          	ld	x8,48(x2)
    80003f88:	04010113          	addi	x2,x2,64
    80003f8c:	00008067          	jalr	x0,0(x1)
    80003f90:	fc042623          	sw	x0,-52(x8)
    80003f94:	f71ff06f          	jal	x0,80003f04 <sys_pause+0x24>
    80003f98:	00208517          	auipc	x10,0x208
    80003f9c:	96050513          	addi	x10,x10,-1696 # 8020b8f8 <tickslock>
    80003fa0:	9c8fd0ef          	jal	x1,80001168 <release>
    80003fa4:	fff00513          	addi	x10,x0,-1
    80003fa8:	02813483          	ld	x9,40(x2)
    80003fac:	02013903          	ld	x18,32(x2)
    80003fb0:	01813983          	ld	x19,24(x2)
    80003fb4:	fcdff06f          	jal	x0,80003f80 <sys_pause+0xa0>

0000000080003fb8 <sys_kill>:
    80003fb8:	fe010113          	addi	x2,x2,-32
    80003fbc:	00113c23          	sd	x1,24(x2)
    80003fc0:	00813823          	sd	x8,16(x2)
    80003fc4:	02010413          	addi	x8,x2,32
    80003fc8:	fec40593          	addi	x11,x8,-20
    80003fcc:	00000513          	addi	x10,x0,0
    80003fd0:	c69ff0ef          	jal	x1,80003c38 <argint>
    80003fd4:	fec42503          	lw	x10,-20(x8)
    80003fd8:	980ff0ef          	jal	x1,80003158 <kkill>
    80003fdc:	01813083          	ld	x1,24(x2)
    80003fe0:	01013403          	ld	x8,16(x2)
    80003fe4:	02010113          	addi	x2,x2,32
    80003fe8:	00008067          	jalr	x0,0(x1)

0000000080003fec <sys_uptime>:
    80003fec:	fe010113          	addi	x2,x2,-32
    80003ff0:	00113c23          	sd	x1,24(x2)
    80003ff4:	00813823          	sd	x8,16(x2)
    80003ff8:	00913423          	sd	x9,8(x2)
    80003ffc:	02010413          	addi	x8,x2,32
    80004000:	00208517          	auipc	x10,0x208
    80004004:	8f850513          	addi	x10,x10,-1800 # 8020b8f8 <tickslock>
    80004008:	888fd0ef          	jal	x1,80001090 <acquire>
    8000400c:	001fa797          	auipc	x15,0x1fa
    80004010:	9b47a783          	lw	x15,-1612(x15) # 801fd9c0 <ticks>
    80004014:	00078493          	addi	x9,x15,0
    80004018:	00208517          	auipc	x10,0x208
    8000401c:	8e050513          	addi	x10,x10,-1824 # 8020b8f8 <tickslock>
    80004020:	948fd0ef          	jal	x1,80001168 <release>
    80004024:	02049513          	slli	x10,x9,0x20
    80004028:	02055513          	srli	x10,x10,0x20
    8000402c:	01813083          	ld	x1,24(x2)
    80004030:	01013403          	ld	x8,16(x2)
    80004034:	00813483          	ld	x9,8(x2)
    80004038:	02010113          	addi	x2,x2,32
    8000403c:	00008067          	jalr	x0,0(x1)

0000000080004040 <binit>:
    80004040:	fd010113          	addi	x2,x2,-48
    80004044:	02113423          	sd	x1,40(x2)
    80004048:	02813023          	sd	x8,32(x2)
    8000404c:	00913c23          	sd	x9,24(x2)
    80004050:	01213823          	sd	x18,16(x2)
    80004054:	01313423          	sd	x19,8(x2)
    80004058:	01413023          	sd	x20,0(x2)
    8000405c:	03010413          	addi	x8,x2,48
    80004060:	00005597          	auipc	x11,0x5
    80004064:	54058593          	addi	x11,x11,1344 # 800095a0 <etext+0x5a0>
    80004068:	00208517          	auipc	x10,0x208
    8000406c:	8a850513          	addi	x10,x10,-1880 # 8020b910 <bcache>
    80004070:	f3dfc0ef          	jal	x1,80000fac <initlock>
    80004074:	00210797          	auipc	x15,0x210
    80004078:	89c78793          	addi	x15,x15,-1892 # 80213910 <bcache+0x8000>
    8000407c:	00210717          	auipc	x14,0x210
    80004080:	afc70713          	addi	x14,x14,-1284 # 80213b78 <bcache+0x8268>
    80004084:	2ae7b823          	sd	x14,688(x15)
    80004088:	2ae7bc23          	sd	x14,696(x15)
    8000408c:	00208497          	auipc	x9,0x208
    80004090:	89c48493          	addi	x9,x9,-1892 # 8020b928 <bcache+0x18>
    80004094:	00078913          	addi	x18,x15,0
    80004098:	00070993          	addi	x19,x14,0
    8000409c:	00005a17          	auipc	x20,0x5
    800040a0:	50ca0a13          	addi	x20,x20,1292 # 800095a8 <etext+0x5a8>
    800040a4:	2b893783          	ld	x15,696(x18)
    800040a8:	04f4b823          	sd	x15,80(x9)
    800040ac:	0534b423          	sd	x19,72(x9)
    800040b0:	000a0593          	addi	x11,x20,0
    800040b4:	01048513          	addi	x10,x9,16
    800040b8:	42d010ef          	jal	x1,80005ce4 <initsleeplock>
    800040bc:	2b893783          	ld	x15,696(x18)
    800040c0:	0497b423          	sd	x9,72(x15)
    800040c4:	2a993c23          	sd	x9,696(x18)
    800040c8:	45848493          	addi	x9,x9,1112
    800040cc:	fd349ce3          	bne	x9,x19,800040a4 <binit+0x64>
    800040d0:	02813083          	ld	x1,40(x2)
    800040d4:	02013403          	ld	x8,32(x2)
    800040d8:	01813483          	ld	x9,24(x2)
    800040dc:	01013903          	ld	x18,16(x2)
    800040e0:	00813983          	ld	x19,8(x2)
    800040e4:	00013a03          	ld	x20,0(x2)
    800040e8:	03010113          	addi	x2,x2,48
    800040ec:	00008067          	jalr	x0,0(x1)

00000000800040f0 <bread>:
    800040f0:	fd010113          	addi	x2,x2,-48
    800040f4:	02113423          	sd	x1,40(x2)
    800040f8:	02813023          	sd	x8,32(x2)
    800040fc:	00913c23          	sd	x9,24(x2)
    80004100:	01213823          	sd	x18,16(x2)
    80004104:	01313423          	sd	x19,8(x2)
    80004108:	03010413          	addi	x8,x2,48
    8000410c:	00050913          	addi	x18,x10,0
    80004110:	00058993          	addi	x19,x11,0
    80004114:	00207517          	auipc	x10,0x207
    80004118:	7fc50513          	addi	x10,x10,2044 # 8020b910 <bcache>
    8000411c:	f75fc0ef          	jal	x1,80001090 <acquire>
    80004120:	00210497          	auipc	x9,0x210
    80004124:	aa84b483          	ld	x9,-1368(x9) # 80213bc8 <bcache+0x82b8>
    80004128:	00210797          	auipc	x15,0x210
    8000412c:	a5078793          	addi	x15,x15,-1456 # 80213b78 <bcache+0x8268>
    80004130:	04f48463          	beq	x9,x15,80004178 <bread+0x88>
    80004134:	00078713          	addi	x14,x15,0
    80004138:	00c0006f          	jal	x0,80004144 <bread+0x54>
    8000413c:	0504b483          	ld	x9,80(x9)
    80004140:	02e48c63          	beq	x9,x14,80004178 <bread+0x88>
    80004144:	0084a783          	lw	x15,8(x9)
    80004148:	ff279ae3          	bne	x15,x18,8000413c <bread+0x4c>
    8000414c:	00c4a783          	lw	x15,12(x9)
    80004150:	ff3796e3          	bne	x15,x19,8000413c <bread+0x4c>
    80004154:	0404a783          	lw	x15,64(x9)
    80004158:	0017879b          	addiw	x15,x15,1
    8000415c:	04f4a023          	sw	x15,64(x9)
    80004160:	00207517          	auipc	x10,0x207
    80004164:	7b050513          	addi	x10,x10,1968 # 8020b910 <bcache>
    80004168:	800fd0ef          	jal	x1,80001168 <release>
    8000416c:	01048513          	addi	x10,x9,16
    80004170:	3c9010ef          	jal	x1,80005d38 <acquiresleep>
    80004174:	0600006f          	jal	x0,800041d4 <bread+0xe4>
    80004178:	00210497          	auipc	x9,0x210
    8000417c:	a484b483          	ld	x9,-1464(x9) # 80213bc0 <bcache+0x82b0>
    80004180:	00210797          	auipc	x15,0x210
    80004184:	9f878793          	addi	x15,x15,-1544 # 80213b78 <bcache+0x8268>
    80004188:	00f48c63          	beq	x9,x15,800041a0 <bread+0xb0>
    8000418c:	00078713          	addi	x14,x15,0
    80004190:	0404a783          	lw	x15,64(x9)
    80004194:	00078c63          	beq	x15,x0,800041ac <bread+0xbc>
    80004198:	0484b483          	ld	x9,72(x9)
    8000419c:	fee49ae3          	bne	x9,x14,80004190 <bread+0xa0>
    800041a0:	00005517          	auipc	x10,0x5
    800041a4:	41050513          	addi	x10,x10,1040 # 800095b0 <etext+0x5b0>
    800041a8:	945fc0ef          	jal	x1,80000aec <panic>
    800041ac:	0124a423          	sw	x18,8(x9)
    800041b0:	0134a623          	sw	x19,12(x9)
    800041b4:	0004a023          	sw	x0,0(x9)
    800041b8:	00100793          	addi	x15,x0,1
    800041bc:	04f4a023          	sw	x15,64(x9)
    800041c0:	00207517          	auipc	x10,0x207
    800041c4:	75050513          	addi	x10,x10,1872 # 8020b910 <bcache>
    800041c8:	fa1fc0ef          	jal	x1,80001168 <release>
    800041cc:	01048513          	addi	x10,x9,16
    800041d0:	369010ef          	jal	x1,80005d38 <acquiresleep>
    800041d4:	0004a783          	lw	x15,0(x9)
    800041d8:	02078263          	beq	x15,x0,800041fc <bread+0x10c>
    800041dc:	00048513          	addi	x10,x9,0
    800041e0:	02813083          	ld	x1,40(x2)
    800041e4:	02013403          	ld	x8,32(x2)
    800041e8:	01813483          	ld	x9,24(x2)
    800041ec:	01013903          	ld	x18,16(x2)
    800041f0:	00813983          	ld	x19,8(x2)
    800041f4:	03010113          	addi	x2,x2,48
    800041f8:	00008067          	jalr	x0,0(x1)
    800041fc:	00000593          	addi	x11,x0,0
    80004200:	00048513          	addi	x10,x9,0
    80004204:	42d030ef          	jal	x1,80007e30 <virtio_disk_rw>
    80004208:	00100793          	addi	x15,x0,1
    8000420c:	00f4a023          	sw	x15,0(x9)
    80004210:	fcdff06f          	jal	x0,800041dc <bread+0xec>

0000000080004214 <bwrite>:
    80004214:	fe010113          	addi	x2,x2,-32
    80004218:	00113c23          	sd	x1,24(x2)
    8000421c:	00813823          	sd	x8,16(x2)
    80004220:	00913423          	sd	x9,8(x2)
    80004224:	02010413          	addi	x8,x2,32
    80004228:	00050493          	addi	x9,x10,0
    8000422c:	01050513          	addi	x10,x10,16
    80004230:	3d9010ef          	jal	x1,80005e08 <holdingsleep>
    80004234:	02050263          	beq	x10,x0,80004258 <bwrite+0x44>
    80004238:	00100593          	addi	x11,x0,1
    8000423c:	00048513          	addi	x10,x9,0
    80004240:	3f1030ef          	jal	x1,80007e30 <virtio_disk_rw>
    80004244:	01813083          	ld	x1,24(x2)
    80004248:	01013403          	ld	x8,16(x2)
    8000424c:	00813483          	ld	x9,8(x2)
    80004250:	02010113          	addi	x2,x2,32
    80004254:	00008067          	jalr	x0,0(x1)
    80004258:	00005517          	auipc	x10,0x5
    8000425c:	37050513          	addi	x10,x10,880 # 800095c8 <etext+0x5c8>
    80004260:	88dfc0ef          	jal	x1,80000aec <panic>

0000000080004264 <brelse>:
    80004264:	fe010113          	addi	x2,x2,-32
    80004268:	00113c23          	sd	x1,24(x2)
    8000426c:	00813823          	sd	x8,16(x2)
    80004270:	00913423          	sd	x9,8(x2)
    80004274:	01213023          	sd	x18,0(x2)
    80004278:	02010413          	addi	x8,x2,32
    8000427c:	00050493          	addi	x9,x10,0
    80004280:	01050913          	addi	x18,x10,16
    80004284:	00090513          	addi	x10,x18,0
    80004288:	381010ef          	jal	x1,80005e08 <holdingsleep>
    8000428c:	08050463          	beq	x10,x0,80004314 <brelse+0xb0>
    80004290:	00090513          	addi	x10,x18,0
    80004294:	31d010ef          	jal	x1,80005db0 <releasesleep>
    80004298:	00207517          	auipc	x10,0x207
    8000429c:	67850513          	addi	x10,x10,1656 # 8020b910 <bcache>
    800042a0:	df1fc0ef          	jal	x1,80001090 <acquire>
    800042a4:	0404a783          	lw	x15,64(x9)
    800042a8:	fff7879b          	addiw	x15,x15,-1
    800042ac:	04f4a023          	sw	x15,64(x9)
    800042b0:	04079063          	bne	x15,x0,800042f0 <brelse+0x8c>
    800042b4:	0504b703          	ld	x14,80(x9)
    800042b8:	0484b783          	ld	x15,72(x9)
    800042bc:	04f73423          	sd	x15,72(x14)
    800042c0:	0504b703          	ld	x14,80(x9)
    800042c4:	04e7b823          	sd	x14,80(x15)
    800042c8:	0020f797          	auipc	x15,0x20f
    800042cc:	64878793          	addi	x15,x15,1608 # 80213910 <bcache+0x8000>
    800042d0:	2b87b703          	ld	x14,696(x15)
    800042d4:	04e4b823          	sd	x14,80(x9)
    800042d8:	00210717          	auipc	x14,0x210
    800042dc:	8a070713          	addi	x14,x14,-1888 # 80213b78 <bcache+0x8268>
    800042e0:	04e4b423          	sd	x14,72(x9)
    800042e4:	2b87b703          	ld	x14,696(x15)
    800042e8:	04973423          	sd	x9,72(x14)
    800042ec:	2a97bc23          	sd	x9,696(x15)
    800042f0:	00207517          	auipc	x10,0x207
    800042f4:	62050513          	addi	x10,x10,1568 # 8020b910 <bcache>
    800042f8:	e71fc0ef          	jal	x1,80001168 <release>
    800042fc:	01813083          	ld	x1,24(x2)
    80004300:	01013403          	ld	x8,16(x2)
    80004304:	00813483          	ld	x9,8(x2)
    80004308:	00013903          	ld	x18,0(x2)
    8000430c:	02010113          	addi	x2,x2,32
    80004310:	00008067          	jalr	x0,0(x1)
    80004314:	00005517          	auipc	x10,0x5
    80004318:	2bc50513          	addi	x10,x10,700 # 800095d0 <etext+0x5d0>
    8000431c:	fd0fc0ef          	jal	x1,80000aec <panic>

0000000080004320 <bpin>:
    80004320:	fe010113          	addi	x2,x2,-32
    80004324:	00113c23          	sd	x1,24(x2)
    80004328:	00813823          	sd	x8,16(x2)
    8000432c:	00913423          	sd	x9,8(x2)
    80004330:	02010413          	addi	x8,x2,32
    80004334:	00050493          	addi	x9,x10,0
    80004338:	00207517          	auipc	x10,0x207
    8000433c:	5d850513          	addi	x10,x10,1496 # 8020b910 <bcache>
    80004340:	d51fc0ef          	jal	x1,80001090 <acquire>
    80004344:	0404a783          	lw	x15,64(x9)
    80004348:	0017879b          	addiw	x15,x15,1
    8000434c:	04f4a023          	sw	x15,64(x9)
    80004350:	00207517          	auipc	x10,0x207
    80004354:	5c050513          	addi	x10,x10,1472 # 8020b910 <bcache>
    80004358:	e11fc0ef          	jal	x1,80001168 <release>
    8000435c:	01813083          	ld	x1,24(x2)
    80004360:	01013403          	ld	x8,16(x2)
    80004364:	00813483          	ld	x9,8(x2)
    80004368:	02010113          	addi	x2,x2,32
    8000436c:	00008067          	jalr	x0,0(x1)

0000000080004370 <bunpin>:
    80004370:	fe010113          	addi	x2,x2,-32
    80004374:	00113c23          	sd	x1,24(x2)
    80004378:	00813823          	sd	x8,16(x2)
    8000437c:	00913423          	sd	x9,8(x2)
    80004380:	02010413          	addi	x8,x2,32
    80004384:	00050493          	addi	x9,x10,0
    80004388:	00207517          	auipc	x10,0x207
    8000438c:	58850513          	addi	x10,x10,1416 # 8020b910 <bcache>
    80004390:	d01fc0ef          	jal	x1,80001090 <acquire>
    80004394:	0404a783          	lw	x15,64(x9)
    80004398:	fff7879b          	addiw	x15,x15,-1
    8000439c:	04f4a023          	sw	x15,64(x9)
    800043a0:	00207517          	auipc	x10,0x207
    800043a4:	57050513          	addi	x10,x10,1392 # 8020b910 <bcache>
    800043a8:	dc1fc0ef          	jal	x1,80001168 <release>
    800043ac:	01813083          	ld	x1,24(x2)
    800043b0:	01013403          	ld	x8,16(x2)
    800043b4:	00813483          	ld	x9,8(x2)
    800043b8:	02010113          	addi	x2,x2,32
    800043bc:	00008067          	jalr	x0,0(x1)

00000000800043c0 <bfree>:
    800043c0:	fe010113          	addi	x2,x2,-32
    800043c4:	00113c23          	sd	x1,24(x2)
    800043c8:	00813823          	sd	x8,16(x2)
    800043cc:	00913423          	sd	x9,8(x2)
    800043d0:	01213023          	sd	x18,0(x2)
    800043d4:	02010413          	addi	x8,x2,32
    800043d8:	00058493          	addi	x9,x11,0
    800043dc:	00d5d79b          	srliw	x15,x11,0xd
    800043e0:	00210597          	auipc	x11,0x210
    800043e4:	c0c5a583          	lw	x11,-1012(x11) # 80213fec <sb+0x1c>
    800043e8:	00f585bb          	addw	x11,x11,x15
    800043ec:	d05ff0ef          	jal	x1,800040f0 <bread>
    800043f0:	0074f713          	andi	x14,x9,7
    800043f4:	00100793          	addi	x15,x0,1
    800043f8:	00e797bb          	sllw	x15,x15,x14
    800043fc:	03349493          	slli	x9,x9,0x33
    80004400:	0364d493          	srli	x9,x9,0x36
    80004404:	00950733          	add	x14,x10,x9
    80004408:	05874703          	lbu	x14,88(x14)
    8000440c:	00e7f6b3          	and	x13,x15,x14
    80004410:	02068e63          	beq	x13,x0,8000444c <bfree+0x8c>
    80004414:	00050913          	addi	x18,x10,0
    80004418:	009504b3          	add	x9,x10,x9
    8000441c:	fff7c793          	xori	x15,x15,-1
    80004420:	00f77733          	and	x14,x14,x15
    80004424:	04e48c23          	sb	x14,88(x9)
    80004428:	7bc010ef          	jal	x1,80005be4 <log_write>
    8000442c:	00090513          	addi	x10,x18,0
    80004430:	e35ff0ef          	jal	x1,80004264 <brelse>
    80004434:	01813083          	ld	x1,24(x2)
    80004438:	01013403          	ld	x8,16(x2)
    8000443c:	00813483          	ld	x9,8(x2)
    80004440:	00013903          	ld	x18,0(x2)
    80004444:	02010113          	addi	x2,x2,32
    80004448:	00008067          	jalr	x0,0(x1)
    8000444c:	00005517          	auipc	x10,0x5
    80004450:	18c50513          	addi	x10,x10,396 # 800095d8 <etext+0x5d8>
    80004454:	e98fc0ef          	jal	x1,80000aec <panic>

0000000080004458 <balloc>:
    80004458:	fb010113          	addi	x2,x2,-80
    8000445c:	04113423          	sd	x1,72(x2)
    80004460:	04813023          	sd	x8,64(x2)
    80004464:	02913c23          	sd	x9,56(x2)
    80004468:	05010413          	addi	x8,x2,80
    8000446c:	00210797          	auipc	x15,0x210
    80004470:	b687a783          	lw	x15,-1176(x15) # 80213fd4 <sb+0x4>
    80004474:	14078863          	beq	x15,x0,800045c4 <balloc+0x16c>
    80004478:	03213823          	sd	x18,48(x2)
    8000447c:	03313423          	sd	x19,40(x2)
    80004480:	03413023          	sd	x20,32(x2)
    80004484:	01513c23          	sd	x21,24(x2)
    80004488:	01613823          	sd	x22,16(x2)
    8000448c:	01713423          	sd	x23,8(x2)
    80004490:	01813023          	sd	x24,0(x2)
    80004494:	00050b93          	addi	x23,x10,0
    80004498:	00000a93          	addi	x21,x0,0
    8000449c:	00210b17          	auipc	x22,0x210
    800044a0:	b34b0b13          	addi	x22,x22,-1228 # 80213fd0 <sb>
    800044a4:	00100993          	addi	x19,x0,1
    800044a8:	00002a37          	lui	x20,0x2
    800044ac:	00002c37          	lui	x24,0x2
    800044b0:	0980006f          	jal	x0,80004548 <balloc+0xf0>
    800044b4:	00f907b3          	add	x15,x18,x15
    800044b8:	00d66633          	or	x12,x12,x13
    800044bc:	04c78c23          	sb	x12,88(x15)
    800044c0:	00090513          	addi	x10,x18,0
    800044c4:	720010ef          	jal	x1,80005be4 <log_write>
    800044c8:	00090513          	addi	x10,x18,0
    800044cc:	d99ff0ef          	jal	x1,80004264 <brelse>
    800044d0:	00048593          	addi	x11,x9,0
    800044d4:	000b8513          	addi	x10,x23,0
    800044d8:	c19ff0ef          	jal	x1,800040f0 <bread>
    800044dc:	00050913          	addi	x18,x10,0
    800044e0:	40000613          	addi	x12,x0,1024
    800044e4:	00000593          	addi	x11,x0,0
    800044e8:	05850513          	addi	x10,x10,88
    800044ec:	d41fc0ef          	jal	x1,8000122c <memset>
    800044f0:	00090513          	addi	x10,x18,0
    800044f4:	6f0010ef          	jal	x1,80005be4 <log_write>
    800044f8:	00090513          	addi	x10,x18,0
    800044fc:	d69ff0ef          	jal	x1,80004264 <brelse>
    80004500:	03013903          	ld	x18,48(x2)
    80004504:	02813983          	ld	x19,40(x2)
    80004508:	02013a03          	ld	x20,32(x2)
    8000450c:	01813a83          	ld	x21,24(x2)
    80004510:	01013b03          	ld	x22,16(x2)
    80004514:	00813b83          	ld	x23,8(x2)
    80004518:	00013c03          	ld	x24,0(x2)
    8000451c:	00048513          	addi	x10,x9,0
    80004520:	04813083          	ld	x1,72(x2)
    80004524:	04013403          	ld	x8,64(x2)
    80004528:	03813483          	ld	x9,56(x2)
    8000452c:	05010113          	addi	x2,x2,80
    80004530:	00008067          	jalr	x0,0(x1)
    80004534:	00090513          	addi	x10,x18,0
    80004538:	d2dff0ef          	jal	x1,80004264 <brelse>
    8000453c:	015c0abb          	addw	x21,x24,x21
    80004540:	004b2783          	lw	x15,4(x22)
    80004544:	06faf263          	bgeu	x21,x15,800045a8 <balloc+0x150>
    80004548:	40dad59b          	sraiw	x11,x21,0xd
    8000454c:	01cb2783          	lw	x15,28(x22)
    80004550:	00b785bb          	addw	x11,x15,x11
    80004554:	000b8513          	addi	x10,x23,0
    80004558:	b99ff0ef          	jal	x1,800040f0 <bread>
    8000455c:	00050913          	addi	x18,x10,0
    80004560:	004b2503          	lw	x10,4(x22)
    80004564:	000a8493          	addi	x9,x21,0
    80004568:	00000713          	addi	x14,x0,0
    8000456c:	fca4f4e3          	bgeu	x9,x10,80004534 <balloc+0xdc>
    80004570:	00777693          	andi	x13,x14,7
    80004574:	00d996bb          	sllw	x13,x19,x13
    80004578:	41f7579b          	sraiw	x15,x14,0x1f
    8000457c:	01d7d79b          	srliw	x15,x15,0x1d
    80004580:	00e787bb          	addw	x15,x15,x14
    80004584:	4037d79b          	sraiw	x15,x15,0x3
    80004588:	00f90633          	add	x12,x18,x15
    8000458c:	05864603          	lbu	x12,88(x12)
    80004590:	00c6f5b3          	and	x11,x13,x12
    80004594:	f20580e3          	beq	x11,x0,800044b4 <balloc+0x5c>
    80004598:	0017071b          	addiw	x14,x14,1
    8000459c:	0014849b          	addiw	x9,x9,1
    800045a0:	fd4716e3          	bne	x14,x20,8000456c <balloc+0x114>
    800045a4:	f91ff06f          	jal	x0,80004534 <balloc+0xdc>
    800045a8:	03013903          	ld	x18,48(x2)
    800045ac:	02813983          	ld	x19,40(x2)
    800045b0:	02013a03          	ld	x20,32(x2)
    800045b4:	01813a83          	ld	x21,24(x2)
    800045b8:	01013b03          	ld	x22,16(x2)
    800045bc:	00813b83          	ld	x23,8(x2)
    800045c0:	00013c03          	ld	x24,0(x2)
    800045c4:	00005517          	auipc	x10,0x5
    800045c8:	02c50513          	addi	x10,x10,44 # 800095f0 <etext+0x5f0>
    800045cc:	900fc0ef          	jal	x1,800006cc <printf>
    800045d0:	00000493          	addi	x9,x0,0
    800045d4:	f49ff06f          	jal	x0,8000451c <balloc+0xc4>

00000000800045d8 <bmap>:
    800045d8:	fd010113          	addi	x2,x2,-48
    800045dc:	02113423          	sd	x1,40(x2)
    800045e0:	02813023          	sd	x8,32(x2)
    800045e4:	00913c23          	sd	x9,24(x2)
    800045e8:	01213823          	sd	x18,16(x2)
    800045ec:	01313423          	sd	x19,8(x2)
    800045f0:	03010413          	addi	x8,x2,48
    800045f4:	00050913          	addi	x18,x10,0
    800045f8:	00b00793          	addi	x15,x0,11
    800045fc:	02b7ea63          	bltu	x15,x11,80004630 <bmap+0x58>
    80004600:	02059793          	slli	x15,x11,0x20
    80004604:	01e7d593          	srli	x11,x15,0x1e
    80004608:	00b507b3          	add	x15,x10,x11
    8000460c:	00078993          	addi	x19,x15,0
    80004610:	0507a483          	lw	x9,80(x15)
    80004614:	08049663          	bne	x9,x0,800046a0 <bmap+0xc8>
    80004618:	00052503          	lw	x10,0(x10)
    8000461c:	e3dff0ef          	jal	x1,80004458 <balloc>
    80004620:	00050493          	addi	x9,x10,0
    80004624:	06050e63          	beq	x10,x0,800046a0 <bmap+0xc8>
    80004628:	04a9a823          	sw	x10,80(x19)
    8000462c:	0740006f          	jal	x0,800046a0 <bmap+0xc8>
    80004630:	ff45879b          	addiw	x15,x11,-12
    80004634:	00078993          	addi	x19,x15,0
    80004638:	0ff00793          	addi	x15,x0,255
    8000463c:	0b37e263          	bltu	x15,x19,800046e0 <bmap+0x108>
    80004640:	08052483          	lw	x9,128(x10)
    80004644:	02049063          	bne	x9,x0,80004664 <bmap+0x8c>
    80004648:	00052503          	lw	x10,0(x10)
    8000464c:	e0dff0ef          	jal	x1,80004458 <balloc>
    80004650:	00050493          	addi	x9,x10,0
    80004654:	04050663          	beq	x10,x0,800046a0 <bmap+0xc8>
    80004658:	01413023          	sd	x20,0(x2)
    8000465c:	08a92023          	sw	x10,128(x18)
    80004660:	0080006f          	jal	x0,80004668 <bmap+0x90>
    80004664:	01413023          	sd	x20,0(x2)
    80004668:	00048593          	addi	x11,x9,0
    8000466c:	00092503          	lw	x10,0(x18)
    80004670:	a81ff0ef          	jal	x1,800040f0 <bread>
    80004674:	00050a13          	addi	x20,x10,0
    80004678:	05850793          	addi	x15,x10,88
    8000467c:	02099713          	slli	x14,x19,0x20
    80004680:	01e75593          	srli	x11,x14,0x1e
    80004684:	00b787b3          	add	x15,x15,x11
    80004688:	00078993          	addi	x19,x15,0
    8000468c:	0007a483          	lw	x9,0(x15)
    80004690:	02048863          	beq	x9,x0,800046c0 <bmap+0xe8>
    80004694:	000a0513          	addi	x10,x20,0 # 2000 <_binary_fs_img_size-0x1f2000>
    80004698:	bcdff0ef          	jal	x1,80004264 <brelse>
    8000469c:	00013a03          	ld	x20,0(x2)
    800046a0:	00048513          	addi	x10,x9,0
    800046a4:	02813083          	ld	x1,40(x2)
    800046a8:	02013403          	ld	x8,32(x2)
    800046ac:	01813483          	ld	x9,24(x2)
    800046b0:	01013903          	ld	x18,16(x2)
    800046b4:	00813983          	ld	x19,8(x2)
    800046b8:	03010113          	addi	x2,x2,48
    800046bc:	00008067          	jalr	x0,0(x1)
    800046c0:	00092503          	lw	x10,0(x18)
    800046c4:	d95ff0ef          	jal	x1,80004458 <balloc>
    800046c8:	00050493          	addi	x9,x10,0
    800046cc:	fc0504e3          	beq	x10,x0,80004694 <bmap+0xbc>
    800046d0:	00a9a023          	sw	x10,0(x19)
    800046d4:	000a0513          	addi	x10,x20,0
    800046d8:	50c010ef          	jal	x1,80005be4 <log_write>
    800046dc:	fb9ff06f          	jal	x0,80004694 <bmap+0xbc>
    800046e0:	01413023          	sd	x20,0(x2)
    800046e4:	00005517          	auipc	x10,0x5
    800046e8:	f2450513          	addi	x10,x10,-220 # 80009608 <etext+0x608>
    800046ec:	c00fc0ef          	jal	x1,80000aec <panic>

00000000800046f0 <iget>:
    800046f0:	fd010113          	addi	x2,x2,-48
    800046f4:	02113423          	sd	x1,40(x2)
    800046f8:	02813023          	sd	x8,32(x2)
    800046fc:	00913c23          	sd	x9,24(x2)
    80004700:	01213823          	sd	x18,16(x2)
    80004704:	01313423          	sd	x19,8(x2)
    80004708:	01413023          	sd	x20,0(x2)
    8000470c:	03010413          	addi	x8,x2,48
    80004710:	00050913          	addi	x18,x10,0
    80004714:	00058a13          	addi	x20,x11,0
    80004718:	00210517          	auipc	x10,0x210
    8000471c:	8d850513          	addi	x10,x10,-1832 # 80213ff0 <itable>
    80004720:	971fc0ef          	jal	x1,80001090 <acquire>
    80004724:	00000993          	addi	x19,x0,0
    80004728:	00210497          	auipc	x9,0x210
    8000472c:	8e048493          	addi	x9,x9,-1824 # 80214008 <itable+0x18>
    80004730:	00211697          	auipc	x13,0x211
    80004734:	36868693          	addi	x13,x13,872 # 80215a98 <log>
    80004738:	0180006f          	jal	x0,80004750 <iget+0x60>
    8000473c:	00079663          	bne	x15,x0,80004748 <iget+0x58>
    80004740:	00099463          	bne	x19,x0,80004748 <iget+0x58>
    80004744:	00048993          	addi	x19,x9,0
    80004748:	08848493          	addi	x9,x9,136
    8000474c:	02d48c63          	beq	x9,x13,80004784 <iget+0x94>
    80004750:	0084a783          	lw	x15,8(x9)
    80004754:	fef054e3          	bge	x0,x15,8000473c <iget+0x4c>
    80004758:	0004a703          	lw	x14,0(x9)
    8000475c:	ff2716e3          	bne	x14,x18,80004748 <iget+0x58>
    80004760:	0044a703          	lw	x14,4(x9)
    80004764:	ff4712e3          	bne	x14,x20,80004748 <iget+0x58>
    80004768:	0017879b          	addiw	x15,x15,1
    8000476c:	00f4a423          	sw	x15,8(x9)
    80004770:	00210517          	auipc	x10,0x210
    80004774:	88050513          	addi	x10,x10,-1920 # 80213ff0 <itable>
    80004778:	9f1fc0ef          	jal	x1,80001168 <release>
    8000477c:	00048993          	addi	x19,x9,0
    80004780:	0280006f          	jal	x0,800047a8 <iget+0xb8>
    80004784:	04098463          	beq	x19,x0,800047cc <iget+0xdc>
    80004788:	0129a023          	sw	x18,0(x19)
    8000478c:	0149a223          	sw	x20,4(x19)
    80004790:	00100793          	addi	x15,x0,1
    80004794:	00f9a423          	sw	x15,8(x19)
    80004798:	0409a023          	sw	x0,64(x19)
    8000479c:	00210517          	auipc	x10,0x210
    800047a0:	85450513          	addi	x10,x10,-1964 # 80213ff0 <itable>
    800047a4:	9c5fc0ef          	jal	x1,80001168 <release>
    800047a8:	00098513          	addi	x10,x19,0
    800047ac:	02813083          	ld	x1,40(x2)
    800047b0:	02013403          	ld	x8,32(x2)
    800047b4:	01813483          	ld	x9,24(x2)
    800047b8:	01013903          	ld	x18,16(x2)
    800047bc:	00813983          	ld	x19,8(x2)
    800047c0:	00013a03          	ld	x20,0(x2)
    800047c4:	03010113          	addi	x2,x2,48
    800047c8:	00008067          	jalr	x0,0(x1)
    800047cc:	00005517          	auipc	x10,0x5
    800047d0:	e5450513          	addi	x10,x10,-428 # 80009620 <etext+0x620>
    800047d4:	b18fc0ef          	jal	x1,80000aec <panic>

00000000800047d8 <iinit>:
    800047d8:	fd010113          	addi	x2,x2,-48
    800047dc:	02113423          	sd	x1,40(x2)
    800047e0:	02813023          	sd	x8,32(x2)
    800047e4:	00913c23          	sd	x9,24(x2)
    800047e8:	01213823          	sd	x18,16(x2)
    800047ec:	01313423          	sd	x19,8(x2)
    800047f0:	03010413          	addi	x8,x2,48
    800047f4:	00005597          	auipc	x11,0x5
    800047f8:	e3c58593          	addi	x11,x11,-452 # 80009630 <etext+0x630>
    800047fc:	0020f517          	auipc	x10,0x20f
    80004800:	7f450513          	addi	x10,x10,2036 # 80213ff0 <itable>
    80004804:	fa8fc0ef          	jal	x1,80000fac <initlock>
    80004808:	00210497          	auipc	x9,0x210
    8000480c:	81048493          	addi	x9,x9,-2032 # 80214018 <itable+0x28>
    80004810:	00211997          	auipc	x19,0x211
    80004814:	29898993          	addi	x19,x19,664 # 80215aa8 <log+0x10>
    80004818:	00005917          	auipc	x18,0x5
    8000481c:	e2090913          	addi	x18,x18,-480 # 80009638 <etext+0x638>
    80004820:	00090593          	addi	x11,x18,0
    80004824:	00048513          	addi	x10,x9,0
    80004828:	4bc010ef          	jal	x1,80005ce4 <initsleeplock>
    8000482c:	08848493          	addi	x9,x9,136
    80004830:	ff3498e3          	bne	x9,x19,80004820 <iinit+0x48>
    80004834:	02813083          	ld	x1,40(x2)
    80004838:	02013403          	ld	x8,32(x2)
    8000483c:	01813483          	ld	x9,24(x2)
    80004840:	01013903          	ld	x18,16(x2)
    80004844:	00813983          	ld	x19,8(x2)
    80004848:	03010113          	addi	x2,x2,48
    8000484c:	00008067          	jalr	x0,0(x1)

0000000080004850 <ialloc>:
    80004850:	fc010113          	addi	x2,x2,-64
    80004854:	02113c23          	sd	x1,56(x2)
    80004858:	02813823          	sd	x8,48(x2)
    8000485c:	04010413          	addi	x8,x2,64
    80004860:	0020f717          	auipc	x14,0x20f
    80004864:	77c72703          	lw	x14,1916(x14) # 80213fdc <sb+0xc>
    80004868:	00100793          	addi	x15,x0,1
    8000486c:	08e7f663          	bgeu	x15,x14,800048f8 <ialloc+0xa8>
    80004870:	02913423          	sd	x9,40(x2)
    80004874:	03213023          	sd	x18,32(x2)
    80004878:	01313c23          	sd	x19,24(x2)
    8000487c:	01413823          	sd	x20,16(x2)
    80004880:	01513423          	sd	x21,8(x2)
    80004884:	01613023          	sd	x22,0(x2)
    80004888:	00050a93          	addi	x21,x10,0
    8000488c:	00058b13          	addi	x22,x11,0
    80004890:	00078913          	addi	x18,x15,0
    80004894:	0020fa17          	auipc	x20,0x20f
    80004898:	73ca0a13          	addi	x20,x20,1852 # 80213fd0 <sb>
    8000489c:	00495593          	srli	x11,x18,0x4
    800048a0:	018a2783          	lw	x15,24(x20)
    800048a4:	00b785bb          	addw	x11,x15,x11
    800048a8:	000a8513          	addi	x10,x21,0
    800048ac:	845ff0ef          	jal	x1,800040f0 <bread>
    800048b0:	00050493          	addi	x9,x10,0
    800048b4:	05850993          	addi	x19,x10,88
    800048b8:	00f97793          	andi	x15,x18,15
    800048bc:	00679793          	slli	x15,x15,0x6
    800048c0:	00f989b3          	add	x19,x19,x15
    800048c4:	00099783          	lh	x15,0(x19)
    800048c8:	04078863          	beq	x15,x0,80004918 <ialloc+0xc8>
    800048cc:	999ff0ef          	jal	x1,80004264 <brelse>
    800048d0:	00190913          	addi	x18,x18,1
    800048d4:	00ca2703          	lw	x14,12(x20)
    800048d8:	0009079b          	addiw	x15,x18,0
    800048dc:	fce7e0e3          	bltu	x15,x14,8000489c <ialloc+0x4c>
    800048e0:	02813483          	ld	x9,40(x2)
    800048e4:	02013903          	ld	x18,32(x2)
    800048e8:	01813983          	ld	x19,24(x2)
    800048ec:	01013a03          	ld	x20,16(x2)
    800048f0:	00813a83          	ld	x21,8(x2)
    800048f4:	00013b03          	ld	x22,0(x2)
    800048f8:	00005517          	auipc	x10,0x5
    800048fc:	d4850513          	addi	x10,x10,-696 # 80009640 <etext+0x640>
    80004900:	dcdfb0ef          	jal	x1,800006cc <printf>
    80004904:	00000513          	addi	x10,x0,0
    80004908:	03813083          	ld	x1,56(x2)
    8000490c:	03013403          	ld	x8,48(x2)
    80004910:	04010113          	addi	x2,x2,64
    80004914:	00008067          	jalr	x0,0(x1)
    80004918:	04000613          	addi	x12,x0,64
    8000491c:	00000593          	addi	x11,x0,0
    80004920:	00098513          	addi	x10,x19,0
    80004924:	909fc0ef          	jal	x1,8000122c <memset>
    80004928:	01699023          	sh	x22,0(x19)
    8000492c:	00048513          	addi	x10,x9,0
    80004930:	2b4010ef          	jal	x1,80005be4 <log_write>
    80004934:	00048513          	addi	x10,x9,0
    80004938:	92dff0ef          	jal	x1,80004264 <brelse>
    8000493c:	0009059b          	addiw	x11,x18,0
    80004940:	000a8513          	addi	x10,x21,0
    80004944:	dadff0ef          	jal	x1,800046f0 <iget>
    80004948:	02813483          	ld	x9,40(x2)
    8000494c:	02013903          	ld	x18,32(x2)
    80004950:	01813983          	ld	x19,24(x2)
    80004954:	01013a03          	ld	x20,16(x2)
    80004958:	00813a83          	ld	x21,8(x2)
    8000495c:	00013b03          	ld	x22,0(x2)
    80004960:	fa9ff06f          	jal	x0,80004908 <ialloc+0xb8>

0000000080004964 <iupdate>:
    80004964:	fe010113          	addi	x2,x2,-32
    80004968:	00113c23          	sd	x1,24(x2)
    8000496c:	00813823          	sd	x8,16(x2)
    80004970:	00913423          	sd	x9,8(x2)
    80004974:	01213023          	sd	x18,0(x2)
    80004978:	02010413          	addi	x8,x2,32
    8000497c:	00050493          	addi	x9,x10,0
    80004980:	00452783          	lw	x15,4(x10)
    80004984:	0047d79b          	srliw	x15,x15,0x4
    80004988:	0020f597          	auipc	x11,0x20f
    8000498c:	6605a583          	lw	x11,1632(x11) # 80213fe8 <sb+0x18>
    80004990:	00f585bb          	addw	x11,x11,x15
    80004994:	00052503          	lw	x10,0(x10)
    80004998:	f58ff0ef          	jal	x1,800040f0 <bread>
    8000499c:	00050913          	addi	x18,x10,0
    800049a0:	05850793          	addi	x15,x10,88
    800049a4:	0044a703          	lw	x14,4(x9)
    800049a8:	00f77713          	andi	x14,x14,15
    800049ac:	00671713          	slli	x14,x14,0x6
    800049b0:	00e787b3          	add	x15,x15,x14
    800049b4:	04449703          	lh	x14,68(x9)
    800049b8:	00e79023          	sh	x14,0(x15)
    800049bc:	04649703          	lh	x14,70(x9)
    800049c0:	00e79123          	sh	x14,2(x15)
    800049c4:	04849703          	lh	x14,72(x9)
    800049c8:	00e79223          	sh	x14,4(x15)
    800049cc:	04a49703          	lh	x14,74(x9)
    800049d0:	00e79323          	sh	x14,6(x15)
    800049d4:	04c4a703          	lw	x14,76(x9)
    800049d8:	00e7a423          	sw	x14,8(x15)
    800049dc:	03400613          	addi	x12,x0,52
    800049e0:	05048593          	addi	x11,x9,80
    800049e4:	00c78513          	addi	x10,x15,12
    800049e8:	8e1fc0ef          	jal	x1,800012c8 <memmove>
    800049ec:	00090513          	addi	x10,x18,0
    800049f0:	1f4010ef          	jal	x1,80005be4 <log_write>
    800049f4:	00090513          	addi	x10,x18,0
    800049f8:	86dff0ef          	jal	x1,80004264 <brelse>
    800049fc:	01813083          	ld	x1,24(x2)
    80004a00:	01013403          	ld	x8,16(x2)
    80004a04:	00813483          	ld	x9,8(x2)
    80004a08:	00013903          	ld	x18,0(x2)
    80004a0c:	02010113          	addi	x2,x2,32
    80004a10:	00008067          	jalr	x0,0(x1)

0000000080004a14 <idup>:
    80004a14:	fe010113          	addi	x2,x2,-32
    80004a18:	00113c23          	sd	x1,24(x2)
    80004a1c:	00813823          	sd	x8,16(x2)
    80004a20:	00913423          	sd	x9,8(x2)
    80004a24:	02010413          	addi	x8,x2,32
    80004a28:	00050493          	addi	x9,x10,0
    80004a2c:	0020f517          	auipc	x10,0x20f
    80004a30:	5c450513          	addi	x10,x10,1476 # 80213ff0 <itable>
    80004a34:	e5cfc0ef          	jal	x1,80001090 <acquire>
    80004a38:	0084a783          	lw	x15,8(x9)
    80004a3c:	0017879b          	addiw	x15,x15,1
    80004a40:	00f4a423          	sw	x15,8(x9)
    80004a44:	0020f517          	auipc	x10,0x20f
    80004a48:	5ac50513          	addi	x10,x10,1452 # 80213ff0 <itable>
    80004a4c:	f1cfc0ef          	jal	x1,80001168 <release>
    80004a50:	00048513          	addi	x10,x9,0
    80004a54:	01813083          	ld	x1,24(x2)
    80004a58:	01013403          	ld	x8,16(x2)
    80004a5c:	00813483          	ld	x9,8(x2)
    80004a60:	02010113          	addi	x2,x2,32
    80004a64:	00008067          	jalr	x0,0(x1)

0000000080004a68 <ilock>:
    80004a68:	fe010113          	addi	x2,x2,-32
    80004a6c:	00113c23          	sd	x1,24(x2)
    80004a70:	00813823          	sd	x8,16(x2)
    80004a74:	00913423          	sd	x9,8(x2)
    80004a78:	02010413          	addi	x8,x2,32
    80004a7c:	02050a63          	beq	x10,x0,80004ab0 <ilock+0x48>
    80004a80:	00050493          	addi	x9,x10,0
    80004a84:	00852783          	lw	x15,8(x10)
    80004a88:	02f05463          	bge	x0,x15,80004ab0 <ilock+0x48>
    80004a8c:	01050513          	addi	x10,x10,16
    80004a90:	2a8010ef          	jal	x1,80005d38 <acquiresleep>
    80004a94:	0404a783          	lw	x15,64(x9)
    80004a98:	02078463          	beq	x15,x0,80004ac0 <ilock+0x58>
    80004a9c:	01813083          	ld	x1,24(x2)
    80004aa0:	01013403          	ld	x8,16(x2)
    80004aa4:	00813483          	ld	x9,8(x2)
    80004aa8:	02010113          	addi	x2,x2,32
    80004aac:	00008067          	jalr	x0,0(x1)
    80004ab0:	01213023          	sd	x18,0(x2)
    80004ab4:	00005517          	auipc	x10,0x5
    80004ab8:	ba450513          	addi	x10,x10,-1116 # 80009658 <etext+0x658>
    80004abc:	830fc0ef          	jal	x1,80000aec <panic>
    80004ac0:	01213023          	sd	x18,0(x2)
    80004ac4:	0044a783          	lw	x15,4(x9)
    80004ac8:	0047d79b          	srliw	x15,x15,0x4
    80004acc:	0020f597          	auipc	x11,0x20f
    80004ad0:	51c5a583          	lw	x11,1308(x11) # 80213fe8 <sb+0x18>
    80004ad4:	00f585bb          	addw	x11,x11,x15
    80004ad8:	0004a503          	lw	x10,0(x9)
    80004adc:	e14ff0ef          	jal	x1,800040f0 <bread>
    80004ae0:	00050913          	addi	x18,x10,0
    80004ae4:	05850593          	addi	x11,x10,88
    80004ae8:	0044a783          	lw	x15,4(x9)
    80004aec:	00f7f793          	andi	x15,x15,15
    80004af0:	00679793          	slli	x15,x15,0x6
    80004af4:	00f585b3          	add	x11,x11,x15
    80004af8:	00059783          	lh	x15,0(x11)
    80004afc:	04f49223          	sh	x15,68(x9)
    80004b00:	00259783          	lh	x15,2(x11)
    80004b04:	04f49323          	sh	x15,70(x9)
    80004b08:	00459783          	lh	x15,4(x11)
    80004b0c:	04f49423          	sh	x15,72(x9)
    80004b10:	00659783          	lh	x15,6(x11)
    80004b14:	04f49523          	sh	x15,74(x9)
    80004b18:	0085a783          	lw	x15,8(x11)
    80004b1c:	04f4a623          	sw	x15,76(x9)
    80004b20:	03400613          	addi	x12,x0,52
    80004b24:	00c58593          	addi	x11,x11,12
    80004b28:	05048513          	addi	x10,x9,80
    80004b2c:	f9cfc0ef          	jal	x1,800012c8 <memmove>
    80004b30:	00090513          	addi	x10,x18,0
    80004b34:	f30ff0ef          	jal	x1,80004264 <brelse>
    80004b38:	00100793          	addi	x15,x0,1
    80004b3c:	04f4a023          	sw	x15,64(x9)
    80004b40:	04449783          	lh	x15,68(x9)
    80004b44:	00078663          	beq	x15,x0,80004b50 <ilock+0xe8>
    80004b48:	00013903          	ld	x18,0(x2)
    80004b4c:	f51ff06f          	jal	x0,80004a9c <ilock+0x34>
    80004b50:	00005517          	auipc	x10,0x5
    80004b54:	b1050513          	addi	x10,x10,-1264 # 80009660 <etext+0x660>
    80004b58:	f95fb0ef          	jal	x1,80000aec <panic>

0000000080004b5c <iunlock>:
    80004b5c:	fe010113          	addi	x2,x2,-32
    80004b60:	00113c23          	sd	x1,24(x2)
    80004b64:	00813823          	sd	x8,16(x2)
    80004b68:	00913423          	sd	x9,8(x2)
    80004b6c:	01213023          	sd	x18,0(x2)
    80004b70:	02010413          	addi	x8,x2,32
    80004b74:	04050063          	beq	x10,x0,80004bb4 <iunlock+0x58>
    80004b78:	00050493          	addi	x9,x10,0
    80004b7c:	01050913          	addi	x18,x10,16
    80004b80:	00090513          	addi	x10,x18,0
    80004b84:	284010ef          	jal	x1,80005e08 <holdingsleep>
    80004b88:	02050663          	beq	x10,x0,80004bb4 <iunlock+0x58>
    80004b8c:	0084a783          	lw	x15,8(x9)
    80004b90:	02f05263          	bge	x0,x15,80004bb4 <iunlock+0x58>
    80004b94:	00090513          	addi	x10,x18,0
    80004b98:	218010ef          	jal	x1,80005db0 <releasesleep>
    80004b9c:	01813083          	ld	x1,24(x2)
    80004ba0:	01013403          	ld	x8,16(x2)
    80004ba4:	00813483          	ld	x9,8(x2)
    80004ba8:	00013903          	ld	x18,0(x2)
    80004bac:	02010113          	addi	x2,x2,32
    80004bb0:	00008067          	jalr	x0,0(x1)
    80004bb4:	00005517          	auipc	x10,0x5
    80004bb8:	abc50513          	addi	x10,x10,-1348 # 80009670 <etext+0x670>
    80004bbc:	f31fb0ef          	jal	x1,80000aec <panic>

0000000080004bc0 <itrunc>:
    80004bc0:	fd010113          	addi	x2,x2,-48
    80004bc4:	02113423          	sd	x1,40(x2)
    80004bc8:	02813023          	sd	x8,32(x2)
    80004bcc:	00913c23          	sd	x9,24(x2)
    80004bd0:	01213823          	sd	x18,16(x2)
    80004bd4:	01313423          	sd	x19,8(x2)
    80004bd8:	03010413          	addi	x8,x2,48
    80004bdc:	00050993          	addi	x19,x10,0
    80004be0:	05050493          	addi	x9,x10,80
    80004be4:	08050913          	addi	x18,x10,128
    80004be8:	00c0006f          	jal	x0,80004bf4 <itrunc+0x34>
    80004bec:	00448493          	addi	x9,x9,4
    80004bf0:	01248e63          	beq	x9,x18,80004c0c <itrunc+0x4c>
    80004bf4:	0004a583          	lw	x11,0(x9)
    80004bf8:	fe058ae3          	beq	x11,x0,80004bec <itrunc+0x2c>
    80004bfc:	0009a503          	lw	x10,0(x19)
    80004c00:	fc0ff0ef          	jal	x1,800043c0 <bfree>
    80004c04:	0004a023          	sw	x0,0(x9)
    80004c08:	fe5ff06f          	jal	x0,80004bec <itrunc+0x2c>
    80004c0c:	0809a583          	lw	x11,128(x19)
    80004c10:	02059663          	bne	x11,x0,80004c3c <itrunc+0x7c>
    80004c14:	0409a623          	sw	x0,76(x19)
    80004c18:	00098513          	addi	x10,x19,0
    80004c1c:	d49ff0ef          	jal	x1,80004964 <iupdate>
    80004c20:	02813083          	ld	x1,40(x2)
    80004c24:	02013403          	ld	x8,32(x2)
    80004c28:	01813483          	ld	x9,24(x2)
    80004c2c:	01013903          	ld	x18,16(x2)
    80004c30:	00813983          	ld	x19,8(x2)
    80004c34:	03010113          	addi	x2,x2,48
    80004c38:	00008067          	jalr	x0,0(x1)
    80004c3c:	01413023          	sd	x20,0(x2)
    80004c40:	0009a503          	lw	x10,0(x19)
    80004c44:	cacff0ef          	jal	x1,800040f0 <bread>
    80004c48:	00050a13          	addi	x20,x10,0
    80004c4c:	05850493          	addi	x9,x10,88
    80004c50:	45850913          	addi	x18,x10,1112
    80004c54:	00c0006f          	jal	x0,80004c60 <itrunc+0xa0>
    80004c58:	00448493          	addi	x9,x9,4
    80004c5c:	01248c63          	beq	x9,x18,80004c74 <itrunc+0xb4>
    80004c60:	0004a583          	lw	x11,0(x9)
    80004c64:	fe058ae3          	beq	x11,x0,80004c58 <itrunc+0x98>
    80004c68:	0009a503          	lw	x10,0(x19)
    80004c6c:	f54ff0ef          	jal	x1,800043c0 <bfree>
    80004c70:	fe9ff06f          	jal	x0,80004c58 <itrunc+0x98>
    80004c74:	000a0513          	addi	x10,x20,0
    80004c78:	decff0ef          	jal	x1,80004264 <brelse>
    80004c7c:	0809a583          	lw	x11,128(x19)
    80004c80:	0009a503          	lw	x10,0(x19)
    80004c84:	f3cff0ef          	jal	x1,800043c0 <bfree>
    80004c88:	0809a023          	sw	x0,128(x19)
    80004c8c:	00013a03          	ld	x20,0(x2)
    80004c90:	f85ff06f          	jal	x0,80004c14 <itrunc+0x54>

0000000080004c94 <iput>:
    80004c94:	fe010113          	addi	x2,x2,-32
    80004c98:	00113c23          	sd	x1,24(x2)
    80004c9c:	00813823          	sd	x8,16(x2)
    80004ca0:	00913423          	sd	x9,8(x2)
    80004ca4:	02010413          	addi	x8,x2,32
    80004ca8:	00050493          	addi	x9,x10,0
    80004cac:	0020f517          	auipc	x10,0x20f
    80004cb0:	34450513          	addi	x10,x10,836 # 80213ff0 <itable>
    80004cb4:	bdcfc0ef          	jal	x1,80001090 <acquire>
    80004cb8:	0084a703          	lw	x14,8(x9)
    80004cbc:	00100793          	addi	x15,x0,1
    80004cc0:	02f70863          	beq	x14,x15,80004cf0 <iput+0x5c>
    80004cc4:	0084a783          	lw	x15,8(x9)
    80004cc8:	fff7879b          	addiw	x15,x15,-1
    80004ccc:	00f4a423          	sw	x15,8(x9)
    80004cd0:	0020f517          	auipc	x10,0x20f
    80004cd4:	32050513          	addi	x10,x10,800 # 80213ff0 <itable>
    80004cd8:	c90fc0ef          	jal	x1,80001168 <release>
    80004cdc:	01813083          	ld	x1,24(x2)
    80004ce0:	01013403          	ld	x8,16(x2)
    80004ce4:	00813483          	ld	x9,8(x2)
    80004ce8:	02010113          	addi	x2,x2,32
    80004cec:	00008067          	jalr	x0,0(x1)
    80004cf0:	0404a783          	lw	x15,64(x9)
    80004cf4:	fc0788e3          	beq	x15,x0,80004cc4 <iput+0x30>
    80004cf8:	04a49783          	lh	x15,74(x9)
    80004cfc:	fc0794e3          	bne	x15,x0,80004cc4 <iput+0x30>
    80004d00:	01213023          	sd	x18,0(x2)
    80004d04:	01048793          	addi	x15,x9,16
    80004d08:	00078913          	addi	x18,x15,0
    80004d0c:	00078513          	addi	x10,x15,0
    80004d10:	028010ef          	jal	x1,80005d38 <acquiresleep>
    80004d14:	0020f517          	auipc	x10,0x20f
    80004d18:	2dc50513          	addi	x10,x10,732 # 80213ff0 <itable>
    80004d1c:	c4cfc0ef          	jal	x1,80001168 <release>
    80004d20:	00048513          	addi	x10,x9,0
    80004d24:	e9dff0ef          	jal	x1,80004bc0 <itrunc>
    80004d28:	04049223          	sh	x0,68(x9)
    80004d2c:	00048513          	addi	x10,x9,0
    80004d30:	c35ff0ef          	jal	x1,80004964 <iupdate>
    80004d34:	0404a023          	sw	x0,64(x9)
    80004d38:	00090513          	addi	x10,x18,0
    80004d3c:	074010ef          	jal	x1,80005db0 <releasesleep>
    80004d40:	0020f517          	auipc	x10,0x20f
    80004d44:	2b050513          	addi	x10,x10,688 # 80213ff0 <itable>
    80004d48:	b48fc0ef          	jal	x1,80001090 <acquire>
    80004d4c:	00013903          	ld	x18,0(x2)
    80004d50:	f75ff06f          	jal	x0,80004cc4 <iput+0x30>

0000000080004d54 <iunlockput>:
    80004d54:	fe010113          	addi	x2,x2,-32
    80004d58:	00113c23          	sd	x1,24(x2)
    80004d5c:	00813823          	sd	x8,16(x2)
    80004d60:	00913423          	sd	x9,8(x2)
    80004d64:	02010413          	addi	x8,x2,32
    80004d68:	00050493          	addi	x9,x10,0
    80004d6c:	df1ff0ef          	jal	x1,80004b5c <iunlock>
    80004d70:	00048513          	addi	x10,x9,0
    80004d74:	f21ff0ef          	jal	x1,80004c94 <iput>
    80004d78:	01813083          	ld	x1,24(x2)
    80004d7c:	01013403          	ld	x8,16(x2)
    80004d80:	00813483          	ld	x9,8(x2)
    80004d84:	02010113          	addi	x2,x2,32
    80004d88:	00008067          	jalr	x0,0(x1)

0000000080004d8c <ireclaim>:
    80004d8c:	0020f617          	auipc	x12,0x20f
    80004d90:	25062603          	lw	x12,592(x12) # 80213fdc <sb+0xc>
    80004d94:	00100793          	addi	x15,x0,1
    80004d98:	16c7f463          	bgeu	x15,x12,80004f00 <ireclaim+0x174>
    80004d9c:	fb010113          	addi	x2,x2,-80
    80004da0:	04113423          	sd	x1,72(x2)
    80004da4:	04813023          	sd	x8,64(x2)
    80004da8:	02913c23          	sd	x9,56(x2)
    80004dac:	03213823          	sd	x18,48(x2)
    80004db0:	03313423          	sd	x19,40(x2)
    80004db4:	03413023          	sd	x20,32(x2)
    80004db8:	01513c23          	sd	x21,24(x2)
    80004dbc:	01613823          	sd	x22,16(x2)
    80004dc0:	01713423          	sd	x23,8(x2)
    80004dc4:	01813023          	sd	x24,0(x2)
    80004dc8:	05010413          	addi	x8,x2,80
    80004dcc:	00050a13          	addi	x20,x10,0
    80004dd0:	00078913          	addi	x18,x15,0
    80004dd4:	66666ab7          	lui	x21,0x66666
    80004dd8:	667a8a93          	addi	x21,x21,1639 # 66666667 <_binary_fs_img_size+0x66472667>
    80004ddc:	00005b97          	auipc	x23,0x5
    80004de0:	89cb8b93          	addi	x23,x23,-1892 # 80009678 <etext+0x678>
    80004de4:	0020f997          	auipc	x19,0x20f
    80004de8:	1ec98993          	addi	x19,x19,492 # 80213fd0 <sb>
    80004dec:	00005b17          	auipc	x22,0x5
    80004df0:	8bcb0b13          	addi	x22,x22,-1860 # 800096a8 <etext+0x6a8>
    80004df4:	0700006f          	jal	x0,80004e64 <ireclaim+0xd8>
    80004df8:	fff6061b          	addiw	x12,x12,-1
    80004dfc:	00048593          	addi	x11,x9,0
    80004e00:	000b8513          	addi	x10,x23,0
    80004e04:	8c9fb0ef          	jal	x1,800006cc <printf>
    80004e08:	0840006f          	jal	x0,80004e8c <ireclaim+0x100>
    80004e0c:	00048593          	addi	x11,x9,0
    80004e10:	000b0513          	addi	x10,x22,0
    80004e14:	8b9fb0ef          	jal	x1,800006cc <printf>
    80004e18:	0009059b          	addiw	x11,x18,0
    80004e1c:	000a0513          	addi	x10,x20,0
    80004e20:	8d1ff0ef          	jal	x1,800046f0 <iget>
    80004e24:	00050493          	addi	x9,x10,0
    80004e28:	000c0513          	addi	x10,x24,0 # 2000 <_binary_fs_img_size-0x1f2000>
    80004e2c:	c38ff0ef          	jal	x1,80004264 <brelse>
    80004e30:	02048263          	beq	x9,x0,80004e54 <ireclaim+0xc8>
    80004e34:	38d000ef          	jal	x1,800059c0 <begin_op>
    80004e38:	00048513          	addi	x10,x9,0
    80004e3c:	c2dff0ef          	jal	x1,80004a68 <ilock>
    80004e40:	00048513          	addi	x10,x9,0
    80004e44:	d19ff0ef          	jal	x1,80004b5c <iunlock>
    80004e48:	00048513          	addi	x10,x9,0
    80004e4c:	e49ff0ef          	jal	x1,80004c94 <iput>
    80004e50:	415000ef          	jal	x1,80005a64 <end_op>
    80004e54:	00c9a603          	lw	x12,12(x19)
    80004e58:	00190913          	addi	x18,x18,1
    80004e5c:	0009079b          	addiw	x15,x18,0
    80004e60:	06c7f863          	bgeu	x15,x12,80004ed0 <ireclaim+0x144>
    80004e64:	0009049b          	addiw	x9,x18,0
    80004e68:	03548733          	mul	x14,x9,x21
    80004e6c:	42275713          	srai	x14,x14,0x22
    80004e70:	41f4d79b          	sraiw	x15,x9,0x1f
    80004e74:	40f7073b          	subw	x14,x14,x15
    80004e78:	0027179b          	slliw	x15,x14,0x2
    80004e7c:	00e787bb          	addw	x15,x15,x14
    80004e80:	0017979b          	slliw	x15,x15,0x1
    80004e84:	40f487bb          	subw	x15,x9,x15
    80004e88:	f60788e3          	beq	x15,x0,80004df8 <ireclaim+0x6c>
    80004e8c:	00495593          	srli	x11,x18,0x4
    80004e90:	0189a783          	lw	x15,24(x19)
    80004e94:	00b785bb          	addw	x11,x15,x11
    80004e98:	000a0513          	addi	x10,x20,0
    80004e9c:	a54ff0ef          	jal	x1,800040f0 <bread>
    80004ea0:	00050c13          	addi	x24,x10,0
    80004ea4:	05850793          	addi	x15,x10,88
    80004ea8:	00f4f713          	andi	x14,x9,15
    80004eac:	00671713          	slli	x14,x14,0x6
    80004eb0:	00e787b3          	add	x15,x15,x14
    80004eb4:	00079703          	lh	x14,0(x15)
    80004eb8:	00070663          	beq	x14,x0,80004ec4 <ireclaim+0x138>
    80004ebc:	00679783          	lh	x15,6(x15)
    80004ec0:	f40786e3          	beq	x15,x0,80004e0c <ireclaim+0x80>
    80004ec4:	000c0513          	addi	x10,x24,0
    80004ec8:	b9cff0ef          	jal	x1,80004264 <brelse>
    80004ecc:	f89ff06f          	jal	x0,80004e54 <ireclaim+0xc8>
    80004ed0:	04813083          	ld	x1,72(x2)
    80004ed4:	04013403          	ld	x8,64(x2)
    80004ed8:	03813483          	ld	x9,56(x2)
    80004edc:	03013903          	ld	x18,48(x2)
    80004ee0:	02813983          	ld	x19,40(x2)
    80004ee4:	02013a03          	ld	x20,32(x2)
    80004ee8:	01813a83          	ld	x21,24(x2)
    80004eec:	01013b03          	ld	x22,16(x2)
    80004ef0:	00813b83          	ld	x23,8(x2)
    80004ef4:	00013c03          	ld	x24,0(x2)
    80004ef8:	05010113          	addi	x2,x2,80
    80004efc:	00008067          	jalr	x0,0(x1)
    80004f00:	00008067          	jalr	x0,0(x1)

0000000080004f04 <fsinit>:
    80004f04:	fe010113          	addi	x2,x2,-32
    80004f08:	00113c23          	sd	x1,24(x2)
    80004f0c:	00813823          	sd	x8,16(x2)
    80004f10:	00913423          	sd	x9,8(x2)
    80004f14:	01213023          	sd	x18,0(x2)
    80004f18:	02010413          	addi	x8,x2,32
    80004f1c:	00050913          	addi	x18,x10,0
    80004f20:	00100593          	addi	x11,x0,1
    80004f24:	9ccff0ef          	jal	x1,800040f0 <bread>
    80004f28:	00050493          	addi	x9,x10,0
    80004f2c:	02000613          	addi	x12,x0,32
    80004f30:	05850593          	addi	x11,x10,88
    80004f34:	0020f517          	auipc	x10,0x20f
    80004f38:	09c50513          	addi	x10,x10,156 # 80213fd0 <sb>
    80004f3c:	b8cfc0ef          	jal	x1,800012c8 <memmove>
    80004f40:	00048513          	addi	x10,x9,0
    80004f44:	b20ff0ef          	jal	x1,80004264 <brelse>
    80004f48:	0020f717          	auipc	x14,0x20f
    80004f4c:	08872703          	lw	x14,136(x14) # 80213fd0 <sb>
    80004f50:	102037b7          	lui	x15,0x10203
    80004f54:	04078793          	addi	x15,x15,64 # 10203040 <_binary_fs_img_size+0x1000f040>
    80004f58:	02f71a63          	bne	x14,x15,80004f8c <fsinit+0x88>
    80004f5c:	0020f597          	auipc	x11,0x20f
    80004f60:	07458593          	addi	x11,x11,116 # 80213fd0 <sb>
    80004f64:	00090513          	addi	x10,x18,0
    80004f68:	1a1000ef          	jal	x1,80005908 <initlog>
    80004f6c:	00090513          	addi	x10,x18,0
    80004f70:	e1dff0ef          	jal	x1,80004d8c <ireclaim>
    80004f74:	01813083          	ld	x1,24(x2)
    80004f78:	01013403          	ld	x8,16(x2)
    80004f7c:	00813483          	ld	x9,8(x2)
    80004f80:	00013903          	ld	x18,0(x2)
    80004f84:	02010113          	addi	x2,x2,32
    80004f88:	00008067          	jalr	x0,0(x1)
    80004f8c:	00004517          	auipc	x10,0x4
    80004f90:	73c50513          	addi	x10,x10,1852 # 800096c8 <etext+0x6c8>
    80004f94:	b59fb0ef          	jal	x1,80000aec <panic>

0000000080004f98 <stati>:
    80004f98:	ff010113          	addi	x2,x2,-16
    80004f9c:	00113423          	sd	x1,8(x2)
    80004fa0:	00813023          	sd	x8,0(x2)
    80004fa4:	01010413          	addi	x8,x2,16
    80004fa8:	00052783          	lw	x15,0(x10)
    80004fac:	00f5a023          	sw	x15,0(x11)
    80004fb0:	00452783          	lw	x15,4(x10)
    80004fb4:	00f5a223          	sw	x15,4(x11)
    80004fb8:	04451783          	lh	x15,68(x10)
    80004fbc:	00f59423          	sh	x15,8(x11)
    80004fc0:	04a51783          	lh	x15,74(x10)
    80004fc4:	00f59523          	sh	x15,10(x11)
    80004fc8:	04c56783          	lwu	x15,76(x10)
    80004fcc:	00f5b823          	sd	x15,16(x11)
    80004fd0:	00813083          	ld	x1,8(x2)
    80004fd4:	00013403          	ld	x8,0(x2)
    80004fd8:	01010113          	addi	x2,x2,16
    80004fdc:	00008067          	jalr	x0,0(x1)

0000000080004fe0 <readi>:
    80004fe0:	04c52783          	lw	x15,76(x10)
    80004fe4:	16d7ec63          	bltu	x15,x13,8000515c <readi+0x17c>
    80004fe8:	f9010113          	addi	x2,x2,-112
    80004fec:	06113423          	sd	x1,104(x2)
    80004ff0:	06813023          	sd	x8,96(x2)
    80004ff4:	04913c23          	sd	x9,88(x2)
    80004ff8:	05413023          	sd	x20,64(x2)
    80004ffc:	03513c23          	sd	x21,56(x2)
    80005000:	03613823          	sd	x22,48(x2)
    80005004:	03713423          	sd	x23,40(x2)
    80005008:	07010413          	addi	x8,x2,112
    8000500c:	00050b13          	addi	x22,x10,0
    80005010:	00058b93          	addi	x23,x11,0
    80005014:	00060a13          	addi	x20,x12,0
    80005018:	00068493          	addi	x9,x13,0
    8000501c:	00070a93          	addi	x21,x14,0
    80005020:	00e6873b          	addw	x14,x13,x14
    80005024:	00000513          	addi	x10,x0,0
    80005028:	10d76863          	bltu	x14,x13,80005138 <readi+0x158>
    8000502c:	05313423          	sd	x19,72(x2)
    80005030:	00e7f463          	bgeu	x15,x14,80005038 <readi+0x58>
    80005034:	40d78abb          	subw	x21,x15,x13
    80005038:	0c0a8e63          	beq	x21,x0,80005114 <readi+0x134>
    8000503c:	05213823          	sd	x18,80(x2)
    80005040:	03813023          	sd	x24,32(x2)
    80005044:	01913c23          	sd	x25,24(x2)
    80005048:	01a13823          	sd	x26,16(x2)
    8000504c:	01b13423          	sd	x27,8(x2)
    80005050:	00000993          	addi	x19,x0,0
    80005054:	40000c93          	addi	x25,x0,1024
    80005058:	fff00c13          	addi	x24,x0,-1
    8000505c:	0400006f          	jal	x0,8000509c <readi+0xbc>
    80005060:	020d1d93          	slli	x27,x26,0x20
    80005064:	020ddd93          	srli	x27,x27,0x20
    80005068:	05890613          	addi	x12,x18,88
    8000506c:	000d8693          	addi	x13,x27,0
    80005070:	00f60633          	add	x12,x12,x15
    80005074:	000a0593          	addi	x11,x20,0
    80005078:	000b8513          	addi	x10,x23,0
    8000507c:	b60fe0ef          	jal	x1,800033dc <either_copyout>
    80005080:	05850c63          	beq	x10,x24,800050d8 <readi+0xf8>
    80005084:	00090513          	addi	x10,x18,0
    80005088:	9dcff0ef          	jal	x1,80004264 <brelse>
    8000508c:	013d09bb          	addw	x19,x26,x19
    80005090:	009d04bb          	addw	x9,x26,x9
    80005094:	01ba0a33          	add	x20,x20,x27
    80005098:	0759f263          	bgeu	x19,x21,800050fc <readi+0x11c>
    8000509c:	00a4d59b          	srliw	x11,x9,0xa
    800050a0:	000b0513          	addi	x10,x22,0
    800050a4:	d34ff0ef          	jal	x1,800045d8 <bmap>
    800050a8:	00050593          	addi	x11,x10,0
    800050ac:	06050863          	beq	x10,x0,8000511c <readi+0x13c>
    800050b0:	000b2503          	lw	x10,0(x22)
    800050b4:	83cff0ef          	jal	x1,800040f0 <bread>
    800050b8:	00050913          	addi	x18,x10,0
    800050bc:	3ff4f793          	andi	x15,x9,1023
    800050c0:	40fc873b          	subw	x14,x25,x15
    800050c4:	413a86bb          	subw	x13,x21,x19
    800050c8:	00070d13          	addi	x26,x14,0
    800050cc:	f8e6fae3          	bgeu	x13,x14,80005060 <readi+0x80>
    800050d0:	00068d13          	addi	x26,x13,0
    800050d4:	f8dff06f          	jal	x0,80005060 <readi+0x80>
    800050d8:	00090513          	addi	x10,x18,0
    800050dc:	988ff0ef          	jal	x1,80004264 <brelse>
    800050e0:	fff00993          	addi	x19,x0,-1
    800050e4:	05013903          	ld	x18,80(x2)
    800050e8:	02013c03          	ld	x24,32(x2)
    800050ec:	01813c83          	ld	x25,24(x2)
    800050f0:	01013d03          	ld	x26,16(x2)
    800050f4:	00813d83          	ld	x27,8(x2)
    800050f8:	0380006f          	jal	x0,80005130 <readi+0x150>
    800050fc:	05013903          	ld	x18,80(x2)
    80005100:	02013c03          	ld	x24,32(x2)
    80005104:	01813c83          	ld	x25,24(x2)
    80005108:	01013d03          	ld	x26,16(x2)
    8000510c:	00813d83          	ld	x27,8(x2)
    80005110:	0200006f          	jal	x0,80005130 <readi+0x150>
    80005114:	000a8993          	addi	x19,x21,0
    80005118:	0180006f          	jal	x0,80005130 <readi+0x150>
    8000511c:	05013903          	ld	x18,80(x2)
    80005120:	02013c03          	ld	x24,32(x2)
    80005124:	01813c83          	ld	x25,24(x2)
    80005128:	01013d03          	ld	x26,16(x2)
    8000512c:	00813d83          	ld	x27,8(x2)
    80005130:	00098513          	addi	x10,x19,0
    80005134:	04813983          	ld	x19,72(x2)
    80005138:	06813083          	ld	x1,104(x2)
    8000513c:	06013403          	ld	x8,96(x2)
    80005140:	05813483          	ld	x9,88(x2)
    80005144:	04013a03          	ld	x20,64(x2)
    80005148:	03813a83          	ld	x21,56(x2)
    8000514c:	03013b03          	ld	x22,48(x2)
    80005150:	02813b83          	ld	x23,40(x2)
    80005154:	07010113          	addi	x2,x2,112
    80005158:	00008067          	jalr	x0,0(x1)
    8000515c:	00000513          	addi	x10,x0,0
    80005160:	00008067          	jalr	x0,0(x1)

0000000080005164 <writei>:
    80005164:	04c52783          	lw	x15,76(x10)
    80005168:	16d7ea63          	bltu	x15,x13,800052dc <writei+0x178>
    8000516c:	f9010113          	addi	x2,x2,-112
    80005170:	06113423          	sd	x1,104(x2)
    80005174:	06813023          	sd	x8,96(x2)
    80005178:	05213823          	sd	x18,80(x2)
    8000517c:	05413023          	sd	x20,64(x2)
    80005180:	03513c23          	sd	x21,56(x2)
    80005184:	03613823          	sd	x22,48(x2)
    80005188:	03713423          	sd	x23,40(x2)
    8000518c:	07010413          	addi	x8,x2,112
    80005190:	00050a93          	addi	x21,x10,0
    80005194:	00058b93          	addi	x23,x11,0
    80005198:	00060a13          	addi	x20,x12,0
    8000519c:	00068913          	addi	x18,x13,0
    800051a0:	00070b13          	addi	x22,x14,0
    800051a4:	00e687bb          	addw	x15,x13,x14
    800051a8:	00043737          	lui	x14,0x43
    800051ac:	12f76c63          	bltu	x14,x15,800052e4 <writei+0x180>
    800051b0:	12d7ea63          	bltu	x15,x13,800052e4 <writei+0x180>
    800051b4:	05313423          	sd	x19,72(x2)
    800051b8:	100b0263          	beq	x22,x0,800052bc <writei+0x158>
    800051bc:	04913c23          	sd	x9,88(x2)
    800051c0:	03813023          	sd	x24,32(x2)
    800051c4:	01913c23          	sd	x25,24(x2)
    800051c8:	01a13823          	sd	x26,16(x2)
    800051cc:	01b13423          	sd	x27,8(x2)
    800051d0:	00000993          	addi	x19,x0,0
    800051d4:	40000c93          	addi	x25,x0,1024
    800051d8:	fff00c13          	addi	x24,x0,-1
    800051dc:	0480006f          	jal	x0,80005224 <writei+0xc0>
    800051e0:	020d1d93          	slli	x27,x26,0x20
    800051e4:	020ddd93          	srli	x27,x27,0x20
    800051e8:	05848513          	addi	x10,x9,88
    800051ec:	000d8693          	addi	x13,x27,0
    800051f0:	000a0613          	addi	x12,x20,0
    800051f4:	000b8593          	addi	x11,x23,0
    800051f8:	00f50533          	add	x10,x10,x15
    800051fc:	a64fe0ef          	jal	x1,80003460 <either_copyin>
    80005200:	07850063          	beq	x10,x24,80005260 <writei+0xfc>
    80005204:	00048513          	addi	x10,x9,0
    80005208:	1dd000ef          	jal	x1,80005be4 <log_write>
    8000520c:	00048513          	addi	x10,x9,0
    80005210:	854ff0ef          	jal	x1,80004264 <brelse>
    80005214:	013d09bb          	addw	x19,x26,x19
    80005218:	012d093b          	addw	x18,x26,x18
    8000521c:	01ba0a33          	add	x20,x20,x27
    80005220:	0569f463          	bgeu	x19,x22,80005268 <writei+0x104>
    80005224:	00a9559b          	srliw	x11,x18,0xa
    80005228:	000a8513          	addi	x10,x21,0
    8000522c:	bacff0ef          	jal	x1,800045d8 <bmap>
    80005230:	00050593          	addi	x11,x10,0
    80005234:	02050a63          	beq	x10,x0,80005268 <writei+0x104>
    80005238:	000aa503          	lw	x10,0(x21)
    8000523c:	eb5fe0ef          	jal	x1,800040f0 <bread>
    80005240:	00050493          	addi	x9,x10,0
    80005244:	3ff97793          	andi	x15,x18,1023
    80005248:	40fc873b          	subw	x14,x25,x15
    8000524c:	413b06bb          	subw	x13,x22,x19
    80005250:	00070d13          	addi	x26,x14,0 # 43000 <_binary_fs_img_size-0x1b1000>
    80005254:	f8e6f6e3          	bgeu	x13,x14,800051e0 <writei+0x7c>
    80005258:	00068d13          	addi	x26,x13,0
    8000525c:	f85ff06f          	jal	x0,800051e0 <writei+0x7c>
    80005260:	00048513          	addi	x10,x9,0
    80005264:	800ff0ef          	jal	x1,80004264 <brelse>
    80005268:	04caa783          	lw	x15,76(x21)
    8000526c:	0527fc63          	bgeu	x15,x18,800052c4 <writei+0x160>
    80005270:	052aa623          	sw	x18,76(x21)
    80005274:	05813483          	ld	x9,88(x2)
    80005278:	02013c03          	ld	x24,32(x2)
    8000527c:	01813c83          	ld	x25,24(x2)
    80005280:	01013d03          	ld	x26,16(x2)
    80005284:	00813d83          	ld	x27,8(x2)
    80005288:	000a8513          	addi	x10,x21,0
    8000528c:	ed8ff0ef          	jal	x1,80004964 <iupdate>
    80005290:	00098513          	addi	x10,x19,0
    80005294:	04813983          	ld	x19,72(x2)
    80005298:	06813083          	ld	x1,104(x2)
    8000529c:	06013403          	ld	x8,96(x2)
    800052a0:	05013903          	ld	x18,80(x2)
    800052a4:	04013a03          	ld	x20,64(x2)
    800052a8:	03813a83          	ld	x21,56(x2)
    800052ac:	03013b03          	ld	x22,48(x2)
    800052b0:	02813b83          	ld	x23,40(x2)
    800052b4:	07010113          	addi	x2,x2,112
    800052b8:	00008067          	jalr	x0,0(x1)
    800052bc:	000b0993          	addi	x19,x22,0
    800052c0:	fc9ff06f          	jal	x0,80005288 <writei+0x124>
    800052c4:	05813483          	ld	x9,88(x2)
    800052c8:	02013c03          	ld	x24,32(x2)
    800052cc:	01813c83          	ld	x25,24(x2)
    800052d0:	01013d03          	ld	x26,16(x2)
    800052d4:	00813d83          	ld	x27,8(x2)
    800052d8:	fb1ff06f          	jal	x0,80005288 <writei+0x124>
    800052dc:	fff00513          	addi	x10,x0,-1
    800052e0:	00008067          	jalr	x0,0(x1)
    800052e4:	fff00513          	addi	x10,x0,-1
    800052e8:	fb1ff06f          	jal	x0,80005298 <writei+0x134>

00000000800052ec <namecmp>:
    800052ec:	ff010113          	addi	x2,x2,-16
    800052f0:	00113423          	sd	x1,8(x2)
    800052f4:	00813023          	sd	x8,0(x2)
    800052f8:	01010413          	addi	x8,x2,16
    800052fc:	00e00613          	addi	x12,x0,14
    80005300:	878fc0ef          	jal	x1,80001378 <strncmp>
    80005304:	00813083          	ld	x1,8(x2)
    80005308:	00013403          	ld	x8,0(x2)
    8000530c:	01010113          	addi	x2,x2,16
    80005310:	00008067          	jalr	x0,0(x1)

0000000080005314 <dirlookup>:
    80005314:	fa010113          	addi	x2,x2,-96
    80005318:	04113c23          	sd	x1,88(x2)
    8000531c:	04813823          	sd	x8,80(x2)
    80005320:	04913423          	sd	x9,72(x2)
    80005324:	05213023          	sd	x18,64(x2)
    80005328:	03313c23          	sd	x19,56(x2)
    8000532c:	03413823          	sd	x20,48(x2)
    80005330:	03513423          	sd	x21,40(x2)
    80005334:	03613023          	sd	x22,32(x2)
    80005338:	01713c23          	sd	x23,24(x2)
    8000533c:	06010413          	addi	x8,x2,96
    80005340:	04451703          	lh	x14,68(x10)
    80005344:	00100793          	addi	x15,x0,1
    80005348:	02f71863          	bne	x14,x15,80005378 <dirlookup+0x64>
    8000534c:	00050913          	addi	x18,x10,0
    80005350:	00058a93          	addi	x21,x11,0
    80005354:	00060b93          	addi	x23,x12,0
    80005358:	04c52783          	lw	x15,76(x10)
    8000535c:	00000493          	addi	x9,x0,0
    80005360:	fa040a13          	addi	x20,x8,-96
    80005364:	01000993          	addi	x19,x0,16
    80005368:	fa240b13          	addi	x22,x8,-94
    8000536c:	00000513          	addi	x10,x0,0
    80005370:	02079663          	bne	x15,x0,8000539c <dirlookup+0x88>
    80005374:	0780006f          	jal	x0,800053ec <dirlookup+0xd8>
    80005378:	00004517          	auipc	x10,0x4
    8000537c:	36850513          	addi	x10,x10,872 # 800096e0 <etext+0x6e0>
    80005380:	f6cfb0ef          	jal	x1,80000aec <panic>
    80005384:	00004517          	auipc	x10,0x4
    80005388:	37450513          	addi	x10,x10,884 # 800096f8 <etext+0x6f8>
    8000538c:	f60fb0ef          	jal	x1,80000aec <panic>
    80005390:	0104849b          	addiw	x9,x9,16
    80005394:	04c92783          	lw	x15,76(x18)
    80005398:	04f4f863          	bgeu	x9,x15,800053e8 <dirlookup+0xd4>
    8000539c:	00098713          	addi	x14,x19,0
    800053a0:	00048693          	addi	x13,x9,0
    800053a4:	000a0613          	addi	x12,x20,0
    800053a8:	00000593          	addi	x11,x0,0
    800053ac:	00090513          	addi	x10,x18,0
    800053b0:	c31ff0ef          	jal	x1,80004fe0 <readi>
    800053b4:	fd3518e3          	bne	x10,x19,80005384 <dirlookup+0x70>
    800053b8:	fa045783          	lhu	x15,-96(x8)
    800053bc:	fc078ae3          	beq	x15,x0,80005390 <dirlookup+0x7c>
    800053c0:	000b0593          	addi	x11,x22,0
    800053c4:	000a8513          	addi	x10,x21,0
    800053c8:	f25ff0ef          	jal	x1,800052ec <namecmp>
    800053cc:	fc0512e3          	bne	x10,x0,80005390 <dirlookup+0x7c>
    800053d0:	000b8463          	beq	x23,x0,800053d8 <dirlookup+0xc4>
    800053d4:	009ba023          	sw	x9,0(x23)
    800053d8:	fa045583          	lhu	x11,-96(x8)
    800053dc:	00092503          	lw	x10,0(x18)
    800053e0:	b10ff0ef          	jal	x1,800046f0 <iget>
    800053e4:	0080006f          	jal	x0,800053ec <dirlookup+0xd8>
    800053e8:	00000513          	addi	x10,x0,0
    800053ec:	05813083          	ld	x1,88(x2)
    800053f0:	05013403          	ld	x8,80(x2)
    800053f4:	04813483          	ld	x9,72(x2)
    800053f8:	04013903          	ld	x18,64(x2)
    800053fc:	03813983          	ld	x19,56(x2)
    80005400:	03013a03          	ld	x20,48(x2)
    80005404:	02813a83          	ld	x21,40(x2)
    80005408:	02013b03          	ld	x22,32(x2)
    8000540c:	01813b83          	ld	x23,24(x2)
    80005410:	06010113          	addi	x2,x2,96
    80005414:	00008067          	jalr	x0,0(x1)

0000000080005418 <namex>:
    80005418:	fa010113          	addi	x2,x2,-96
    8000541c:	04113c23          	sd	x1,88(x2)
    80005420:	04813823          	sd	x8,80(x2)
    80005424:	04913423          	sd	x9,72(x2)
    80005428:	05213023          	sd	x18,64(x2)
    8000542c:	03313c23          	sd	x19,56(x2)
    80005430:	03413823          	sd	x20,48(x2)
    80005434:	03513423          	sd	x21,40(x2)
    80005438:	03613023          	sd	x22,32(x2)
    8000543c:	01713c23          	sd	x23,24(x2)
    80005440:	01813823          	sd	x24,16(x2)
    80005444:	01913423          	sd	x25,8(x2)
    80005448:	01a13023          	sd	x26,0(x2)
    8000544c:	06010413          	addi	x8,x2,96
    80005450:	00050493          	addi	x9,x10,0
    80005454:	00058b13          	addi	x22,x11,0
    80005458:	00060a93          	addi	x21,x12,0
    8000545c:	00054703          	lbu	x14,0(x10)
    80005460:	02f00793          	addi	x15,x0,47
    80005464:	02f70463          	beq	x14,x15,8000548c <namex+0x74>
    80005468:	9b8fd0ef          	jal	x1,80002620 <myproc>
    8000546c:	15053503          	ld	x10,336(x10)
    80005470:	da4ff0ef          	jal	x1,80004a14 <idup>
    80005474:	00050a13          	addi	x20,x10,0
    80005478:	02f00993          	addi	x19,x0,47
    8000547c:	00d00c13          	addi	x24,x0,13
    80005480:	00e00c93          	addi	x25,x0,14
    80005484:	00100b93          	addi	x23,x0,1
    80005488:	0f00006f          	jal	x0,80005578 <namex+0x160>
    8000548c:	00100593          	addi	x11,x0,1
    80005490:	00058513          	addi	x10,x11,0
    80005494:	a5cff0ef          	jal	x1,800046f0 <iget>
    80005498:	00050a13          	addi	x20,x10,0
    8000549c:	fddff06f          	jal	x0,80005478 <namex+0x60>
    800054a0:	000a0513          	addi	x10,x20,0
    800054a4:	8b1ff0ef          	jal	x1,80004d54 <iunlockput>
    800054a8:	00000a13          	addi	x20,x0,0
    800054ac:	000a0513          	addi	x10,x20,0
    800054b0:	05813083          	ld	x1,88(x2)
    800054b4:	05013403          	ld	x8,80(x2)
    800054b8:	04813483          	ld	x9,72(x2)
    800054bc:	04013903          	ld	x18,64(x2)
    800054c0:	03813983          	ld	x19,56(x2)
    800054c4:	03013a03          	ld	x20,48(x2)
    800054c8:	02813a83          	ld	x21,40(x2)
    800054cc:	02013b03          	ld	x22,32(x2)
    800054d0:	01813b83          	ld	x23,24(x2)
    800054d4:	01013c03          	ld	x24,16(x2)
    800054d8:	00813c83          	ld	x25,8(x2)
    800054dc:	00013d03          	ld	x26,0(x2)
    800054e0:	06010113          	addi	x2,x2,96
    800054e4:	00008067          	jalr	x0,0(x1)
    800054e8:	000a0513          	addi	x10,x20,0
    800054ec:	e70ff0ef          	jal	x1,80004b5c <iunlock>
    800054f0:	fbdff06f          	jal	x0,800054ac <namex+0x94>
    800054f4:	000a0513          	addi	x10,x20,0
    800054f8:	85dff0ef          	jal	x1,80004d54 <iunlockput>
    800054fc:	00090a13          	addi	x20,x18,0
    80005500:	fadff06f          	jal	x0,800054ac <namex+0x94>
    80005504:	40990633          	sub	x12,x18,x9
    80005508:	00060d1b          	addiw	x26,x12,0
    8000550c:	0bac5e63          	bge	x24,x26,800055c8 <namex+0x1b0>
    80005510:	000c8613          	addi	x12,x25,0
    80005514:	00048593          	addi	x11,x9,0
    80005518:	000a8513          	addi	x10,x21,0
    8000551c:	dadfb0ef          	jal	x1,800012c8 <memmove>
    80005520:	00090493          	addi	x9,x18,0
    80005524:	0004c783          	lbu	x15,0(x9)
    80005528:	01379863          	bne	x15,x19,80005538 <namex+0x120>
    8000552c:	00148493          	addi	x9,x9,1
    80005530:	0004c783          	lbu	x15,0(x9)
    80005534:	ff378ce3          	beq	x15,x19,8000552c <namex+0x114>
    80005538:	000a0513          	addi	x10,x20,0
    8000553c:	d2cff0ef          	jal	x1,80004a68 <ilock>
    80005540:	044a1783          	lh	x15,68(x20)
    80005544:	f5779ee3          	bne	x15,x23,800054a0 <namex+0x88>
    80005548:	000b0663          	beq	x22,x0,80005554 <namex+0x13c>
    8000554c:	0004c783          	lbu	x15,0(x9)
    80005550:	f8078ce3          	beq	x15,x0,800054e8 <namex+0xd0>
    80005554:	00000613          	addi	x12,x0,0
    80005558:	000a8593          	addi	x11,x21,0
    8000555c:	000a0513          	addi	x10,x20,0
    80005560:	db5ff0ef          	jal	x1,80005314 <dirlookup>
    80005564:	00050913          	addi	x18,x10,0
    80005568:	f80506e3          	beq	x10,x0,800054f4 <namex+0xdc>
    8000556c:	000a0513          	addi	x10,x20,0
    80005570:	fe4ff0ef          	jal	x1,80004d54 <iunlockput>
    80005574:	00090a13          	addi	x20,x18,0
    80005578:	0004c783          	lbu	x15,0(x9)
    8000557c:	01379863          	bne	x15,x19,8000558c <namex+0x174>
    80005580:	00148493          	addi	x9,x9,1
    80005584:	0004c783          	lbu	x15,0(x9)
    80005588:	ff378ce3          	beq	x15,x19,80005580 <namex+0x168>
    8000558c:	04078e63          	beq	x15,x0,800055e8 <namex+0x1d0>
    80005590:	0004c783          	lbu	x15,0(x9)
    80005594:	fd178713          	addi	x14,x15,-47
    80005598:	02070263          	beq	x14,x0,800055bc <namex+0x1a4>
    8000559c:	02078063          	beq	x15,x0,800055bc <namex+0x1a4>
    800055a0:	00048913          	addi	x18,x9,0
    800055a4:	00190913          	addi	x18,x18,1
    800055a8:	00094783          	lbu	x15,0(x18)
    800055ac:	fd178713          	addi	x14,x15,-47
    800055b0:	f4070ae3          	beq	x14,x0,80005504 <namex+0xec>
    800055b4:	fe0798e3          	bne	x15,x0,800055a4 <namex+0x18c>
    800055b8:	f4dff06f          	jal	x0,80005504 <namex+0xec>
    800055bc:	00048913          	addi	x18,x9,0
    800055c0:	00000d13          	addi	x26,x0,0
    800055c4:	00000613          	addi	x12,x0,0
    800055c8:	0006061b          	addiw	x12,x12,0
    800055cc:	00048593          	addi	x11,x9,0
    800055d0:	000a8513          	addi	x10,x21,0
    800055d4:	cf5fb0ef          	jal	x1,800012c8 <memmove>
    800055d8:	01aa8d33          	add	x26,x21,x26
    800055dc:	000d0023          	sb	x0,0(x26) # fffffffffffff000 <end+0xffffffff7fbf4450>
    800055e0:	00090493          	addi	x9,x18,0
    800055e4:	f41ff06f          	jal	x0,80005524 <namex+0x10c>
    800055e8:	ec0b02e3          	beq	x22,x0,800054ac <namex+0x94>
    800055ec:	000a0513          	addi	x10,x20,0
    800055f0:	ea4ff0ef          	jal	x1,80004c94 <iput>
    800055f4:	00000a13          	addi	x20,x0,0
    800055f8:	eb5ff06f          	jal	x0,800054ac <namex+0x94>

00000000800055fc <dirlink>:
    800055fc:	fb010113          	addi	x2,x2,-80
    80005600:	04113423          	sd	x1,72(x2)
    80005604:	04813023          	sd	x8,64(x2)
    80005608:	03213823          	sd	x18,48(x2)
    8000560c:	01513c23          	sd	x21,24(x2)
    80005610:	01613823          	sd	x22,16(x2)
    80005614:	05010413          	addi	x8,x2,80
    80005618:	00050913          	addi	x18,x10,0
    8000561c:	00058a93          	addi	x21,x11,0
    80005620:	00060b13          	addi	x22,x12,0
    80005624:	00000613          	addi	x12,x0,0
    80005628:	cedff0ef          	jal	x1,80005314 <dirlookup>
    8000562c:	06051063          	bne	x10,x0,8000568c <dirlink+0x90>
    80005630:	02913c23          	sd	x9,56(x2)
    80005634:	04c92483          	lw	x9,76(x18)
    80005638:	06048a63          	beq	x9,x0,800056ac <dirlink+0xb0>
    8000563c:	03313423          	sd	x19,40(x2)
    80005640:	03413023          	sd	x20,32(x2)
    80005644:	00000493          	addi	x9,x0,0
    80005648:	fb040a13          	addi	x20,x8,-80
    8000564c:	01000993          	addi	x19,x0,16
    80005650:	00098713          	addi	x14,x19,0
    80005654:	00048693          	addi	x13,x9,0
    80005658:	000a0613          	addi	x12,x20,0
    8000565c:	00000593          	addi	x11,x0,0
    80005660:	00090513          	addi	x10,x18,0
    80005664:	97dff0ef          	jal	x1,80004fe0 <readi>
    80005668:	03351863          	bne	x10,x19,80005698 <dirlink+0x9c>
    8000566c:	fb045783          	lhu	x15,-80(x8)
    80005670:	02078a63          	beq	x15,x0,800056a4 <dirlink+0xa8>
    80005674:	0104849b          	addiw	x9,x9,16
    80005678:	04c92783          	lw	x15,76(x18)
    8000567c:	fcf4eae3          	bltu	x9,x15,80005650 <dirlink+0x54>
    80005680:	02813983          	ld	x19,40(x2)
    80005684:	02013a03          	ld	x20,32(x2)
    80005688:	0240006f          	jal	x0,800056ac <dirlink+0xb0>
    8000568c:	e08ff0ef          	jal	x1,80004c94 <iput>
    80005690:	fff00513          	addi	x10,x0,-1
    80005694:	0540006f          	jal	x0,800056e8 <dirlink+0xec>
    80005698:	00004517          	auipc	x10,0x4
    8000569c:	07050513          	addi	x10,x10,112 # 80009708 <etext+0x708>
    800056a0:	c4cfb0ef          	jal	x1,80000aec <panic>
    800056a4:	02813983          	ld	x19,40(x2)
    800056a8:	02013a03          	ld	x20,32(x2)
    800056ac:	00e00613          	addi	x12,x0,14
    800056b0:	000a8593          	addi	x11,x21,0
    800056b4:	fb240513          	addi	x10,x8,-78
    800056b8:	d21fb0ef          	jal	x1,800013d8 <strncpy>
    800056bc:	fb641823          	sh	x22,-80(x8)
    800056c0:	01000713          	addi	x14,x0,16
    800056c4:	00048693          	addi	x13,x9,0
    800056c8:	fb040613          	addi	x12,x8,-80
    800056cc:	00000593          	addi	x11,x0,0
    800056d0:	00090513          	addi	x10,x18,0
    800056d4:	a91ff0ef          	jal	x1,80005164 <writei>
    800056d8:	ff050513          	addi	x10,x10,-16
    800056dc:	00a03533          	sltu	x10,x0,x10
    800056e0:	40a0053b          	subw	x10,x0,x10
    800056e4:	03813483          	ld	x9,56(x2)
    800056e8:	04813083          	ld	x1,72(x2)
    800056ec:	04013403          	ld	x8,64(x2)
    800056f0:	03013903          	ld	x18,48(x2)
    800056f4:	01813a83          	ld	x21,24(x2)
    800056f8:	01013b03          	ld	x22,16(x2)
    800056fc:	05010113          	addi	x2,x2,80
    80005700:	00008067          	jalr	x0,0(x1)

0000000080005704 <namei>:
    80005704:	fe010113          	addi	x2,x2,-32
    80005708:	00113c23          	sd	x1,24(x2)
    8000570c:	00813823          	sd	x8,16(x2)
    80005710:	02010413          	addi	x8,x2,32
    80005714:	fe040613          	addi	x12,x8,-32
    80005718:	00000593          	addi	x11,x0,0
    8000571c:	cfdff0ef          	jal	x1,80005418 <namex>
    80005720:	01813083          	ld	x1,24(x2)
    80005724:	01013403          	ld	x8,16(x2)
    80005728:	02010113          	addi	x2,x2,32
    8000572c:	00008067          	jalr	x0,0(x1)

0000000080005730 <nameiparent>:
    80005730:	ff010113          	addi	x2,x2,-16
    80005734:	00113423          	sd	x1,8(x2)
    80005738:	00813023          	sd	x8,0(x2)
    8000573c:	01010413          	addi	x8,x2,16
    80005740:	00058613          	addi	x12,x11,0
    80005744:	00100593          	addi	x11,x0,1
    80005748:	cd1ff0ef          	jal	x1,80005418 <namex>
    8000574c:	00813083          	ld	x1,8(x2)
    80005750:	00013403          	ld	x8,0(x2)
    80005754:	01010113          	addi	x2,x2,16
    80005758:	00008067          	jalr	x0,0(x1)

000000008000575c <write_head>:
    8000575c:	fe010113          	addi	x2,x2,-32
    80005760:	00113c23          	sd	x1,24(x2)
    80005764:	00813823          	sd	x8,16(x2)
    80005768:	00913423          	sd	x9,8(x2)
    8000576c:	01213023          	sd	x18,0(x2)
    80005770:	02010413          	addi	x8,x2,32
    80005774:	00210917          	auipc	x18,0x210
    80005778:	32490913          	addi	x18,x18,804 # 80215a98 <log>
    8000577c:	01892583          	lw	x11,24(x18)
    80005780:	02492503          	lw	x10,36(x18)
    80005784:	96dfe0ef          	jal	x1,800040f0 <bread>
    80005788:	00050493          	addi	x9,x10,0
    8000578c:	02892603          	lw	x12,40(x18)
    80005790:	04c52c23          	sw	x12,88(x10)
    80005794:	02c05663          	bge	x0,x12,800057c0 <write_head+0x64>
    80005798:	00210717          	auipc	x14,0x210
    8000579c:	32c70713          	addi	x14,x14,812 # 80215ac4 <log+0x2c>
    800057a0:	00050793          	addi	x15,x10,0
    800057a4:	00261613          	slli	x12,x12,0x2
    800057a8:	00a60633          	add	x12,x12,x10
    800057ac:	00072683          	lw	x13,0(x14)
    800057b0:	04d7ae23          	sw	x13,92(x15)
    800057b4:	00470713          	addi	x14,x14,4
    800057b8:	00478793          	addi	x15,x15,4
    800057bc:	fec798e3          	bne	x15,x12,800057ac <write_head+0x50>
    800057c0:	00048513          	addi	x10,x9,0
    800057c4:	a51fe0ef          	jal	x1,80004214 <bwrite>
    800057c8:	00048513          	addi	x10,x9,0
    800057cc:	a99fe0ef          	jal	x1,80004264 <brelse>
    800057d0:	01813083          	ld	x1,24(x2)
    800057d4:	01013403          	ld	x8,16(x2)
    800057d8:	00813483          	ld	x9,8(x2)
    800057dc:	00013903          	ld	x18,0(x2)
    800057e0:	02010113          	addi	x2,x2,32
    800057e4:	00008067          	jalr	x0,0(x1)

00000000800057e8 <install_trans>:
    800057e8:	00210797          	auipc	x15,0x210
    800057ec:	2d87a783          	lw	x15,728(x15) # 80215ac0 <log+0x28>
    800057f0:	10f05a63          	bge	x0,x15,80005904 <install_trans+0x11c>
    800057f4:	fb010113          	addi	x2,x2,-80
    800057f8:	04113423          	sd	x1,72(x2)
    800057fc:	04813023          	sd	x8,64(x2)
    80005800:	02913c23          	sd	x9,56(x2)
    80005804:	03213823          	sd	x18,48(x2)
    80005808:	03313423          	sd	x19,40(x2)
    8000580c:	03413023          	sd	x20,32(x2)
    80005810:	01513c23          	sd	x21,24(x2)
    80005814:	01613823          	sd	x22,16(x2)
    80005818:	01713423          	sd	x23,8(x2)
    8000581c:	01813023          	sd	x24,0(x2)
    80005820:	05010413          	addi	x8,x2,80
    80005824:	00050b13          	addi	x22,x10,0
    80005828:	00210a97          	auipc	x21,0x210
    8000582c:	29ca8a93          	addi	x21,x21,668 # 80215ac4 <log+0x2c>
    80005830:	00000993          	addi	x19,x0,0
    80005834:	00004c17          	auipc	x24,0x4
    80005838:	ee4c0c13          	addi	x24,x24,-284 # 80009718 <etext+0x718>
    8000583c:	00210a17          	auipc	x20,0x210
    80005840:	25ca0a13          	addi	x20,x20,604 # 80215a98 <log>
    80005844:	40000b93          	addi	x23,x0,1024
    80005848:	0380006f          	jal	x0,80005880 <install_trans+0x98>
    8000584c:	000aa603          	lw	x12,0(x21)
    80005850:	00098593          	addi	x11,x19,0
    80005854:	000c0513          	addi	x10,x24,0
    80005858:	e75fa0ef          	jal	x1,800006cc <printf>
    8000585c:	0280006f          	jal	x0,80005884 <install_trans+0x9c>
    80005860:	00090513          	addi	x10,x18,0
    80005864:	a01fe0ef          	jal	x1,80004264 <brelse>
    80005868:	00048513          	addi	x10,x9,0
    8000586c:	9f9fe0ef          	jal	x1,80004264 <brelse>
    80005870:	0019899b          	addiw	x19,x19,1
    80005874:	004a8a93          	addi	x21,x21,4
    80005878:	028a2783          	lw	x15,40(x20)
    8000587c:	04f9dc63          	bge	x19,x15,800058d4 <install_trans+0xec>
    80005880:	fc0b16e3          	bne	x22,x0,8000584c <install_trans+0x64>
    80005884:	018a2583          	lw	x11,24(x20)
    80005888:	013585bb          	addw	x11,x11,x19
    8000588c:	0015859b          	addiw	x11,x11,1
    80005890:	024a2503          	lw	x10,36(x20)
    80005894:	85dfe0ef          	jal	x1,800040f0 <bread>
    80005898:	00050913          	addi	x18,x10,0
    8000589c:	000aa583          	lw	x11,0(x21)
    800058a0:	024a2503          	lw	x10,36(x20)
    800058a4:	84dfe0ef          	jal	x1,800040f0 <bread>
    800058a8:	00050493          	addi	x9,x10,0
    800058ac:	000b8613          	addi	x12,x23,0
    800058b0:	05890593          	addi	x11,x18,88
    800058b4:	05850513          	addi	x10,x10,88
    800058b8:	a11fb0ef          	jal	x1,800012c8 <memmove>
    800058bc:	00048513          	addi	x10,x9,0
    800058c0:	955fe0ef          	jal	x1,80004214 <bwrite>
    800058c4:	f80b1ee3          	bne	x22,x0,80005860 <install_trans+0x78>
    800058c8:	00048513          	addi	x10,x9,0
    800058cc:	aa5fe0ef          	jal	x1,80004370 <bunpin>
    800058d0:	f91ff06f          	jal	x0,80005860 <install_trans+0x78>
    800058d4:	04813083          	ld	x1,72(x2)
    800058d8:	04013403          	ld	x8,64(x2)
    800058dc:	03813483          	ld	x9,56(x2)
    800058e0:	03013903          	ld	x18,48(x2)
    800058e4:	02813983          	ld	x19,40(x2)
    800058e8:	02013a03          	ld	x20,32(x2)
    800058ec:	01813a83          	ld	x21,24(x2)
    800058f0:	01013b03          	ld	x22,16(x2)
    800058f4:	00813b83          	ld	x23,8(x2)
    800058f8:	00013c03          	ld	x24,0(x2)
    800058fc:	05010113          	addi	x2,x2,80
    80005900:	00008067          	jalr	x0,0(x1)
    80005904:	00008067          	jalr	x0,0(x1)

0000000080005908 <initlog>:
    80005908:	fd010113          	addi	x2,x2,-48
    8000590c:	02113423          	sd	x1,40(x2)
    80005910:	02813023          	sd	x8,32(x2)
    80005914:	00913c23          	sd	x9,24(x2)
    80005918:	01213823          	sd	x18,16(x2)
    8000591c:	01313423          	sd	x19,8(x2)
    80005920:	03010413          	addi	x8,x2,48
    80005924:	00050493          	addi	x9,x10,0
    80005928:	00058993          	addi	x19,x11,0
    8000592c:	00210917          	auipc	x18,0x210
    80005930:	16c90913          	addi	x18,x18,364 # 80215a98 <log>
    80005934:	00004597          	auipc	x11,0x4
    80005938:	e0458593          	addi	x11,x11,-508 # 80009738 <etext+0x738>
    8000593c:	00090513          	addi	x10,x18,0
    80005940:	e6cfb0ef          	jal	x1,80000fac <initlock>
    80005944:	0149a583          	lw	x11,20(x19)
    80005948:	00b92c23          	sw	x11,24(x18)
    8000594c:	02992223          	sw	x9,36(x18)
    80005950:	00048513          	addi	x10,x9,0
    80005954:	f9cfe0ef          	jal	x1,800040f0 <bread>
    80005958:	05852603          	lw	x12,88(x10)
    8000595c:	02c92423          	sw	x12,40(x18)
    80005960:	02c05663          	bge	x0,x12,8000598c <initlog+0x84>
    80005964:	00050793          	addi	x15,x10,0
    80005968:	00210717          	auipc	x14,0x210
    8000596c:	15c70713          	addi	x14,x14,348 # 80215ac4 <log+0x2c>
    80005970:	00261613          	slli	x12,x12,0x2
    80005974:	00a60633          	add	x12,x12,x10
    80005978:	05c7a683          	lw	x13,92(x15)
    8000597c:	00d72023          	sw	x13,0(x14)
    80005980:	00478793          	addi	x15,x15,4
    80005984:	00470713          	addi	x14,x14,4
    80005988:	fec798e3          	bne	x15,x12,80005978 <initlog+0x70>
    8000598c:	8d9fe0ef          	jal	x1,80004264 <brelse>
    80005990:	00100513          	addi	x10,x0,1
    80005994:	e55ff0ef          	jal	x1,800057e8 <install_trans>
    80005998:	00210797          	auipc	x15,0x210
    8000599c:	1207a423          	sw	x0,296(x15) # 80215ac0 <log+0x28>
    800059a0:	dbdff0ef          	jal	x1,8000575c <write_head>
    800059a4:	02813083          	ld	x1,40(x2)
    800059a8:	02013403          	ld	x8,32(x2)
    800059ac:	01813483          	ld	x9,24(x2)
    800059b0:	01013903          	ld	x18,16(x2)
    800059b4:	00813983          	ld	x19,8(x2)
    800059b8:	03010113          	addi	x2,x2,48
    800059bc:	00008067          	jalr	x0,0(x1)

00000000800059c0 <begin_op>:
    800059c0:	fe010113          	addi	x2,x2,-32
    800059c4:	00113c23          	sd	x1,24(x2)
    800059c8:	00813823          	sd	x8,16(x2)
    800059cc:	00913423          	sd	x9,8(x2)
    800059d0:	01213023          	sd	x18,0(x2)
    800059d4:	02010413          	addi	x8,x2,32
    800059d8:	00210517          	auipc	x10,0x210
    800059dc:	0c050513          	addi	x10,x10,192 # 80215a98 <log>
    800059e0:	eb0fb0ef          	jal	x1,80001090 <acquire>
    800059e4:	00210497          	auipc	x9,0x210
    800059e8:	0b448493          	addi	x9,x9,180 # 80215a98 <log>
    800059ec:	01e00913          	addi	x18,x0,30
    800059f0:	0100006f          	jal	x0,80005a00 <begin_op+0x40>
    800059f4:	00048593          	addi	x11,x9,0
    800059f8:	00048513          	addi	x10,x9,0
    800059fc:	cfcfd0ef          	jal	x1,80002ef8 <sleep>
    80005a00:	0204a783          	lw	x15,32(x9)
    80005a04:	fe0798e3          	bne	x15,x0,800059f4 <begin_op+0x34>
    80005a08:	01c4a703          	lw	x14,28(x9)
    80005a0c:	0017071b          	addiw	x14,x14,1
    80005a10:	0027179b          	slliw	x15,x14,0x2
    80005a14:	00e787bb          	addw	x15,x15,x14
    80005a18:	0017979b          	slliw	x15,x15,0x1
    80005a1c:	0284a683          	lw	x13,40(x9)
    80005a20:	00f687bb          	addw	x15,x13,x15
    80005a24:	00f95a63          	bge	x18,x15,80005a38 <begin_op+0x78>
    80005a28:	00048593          	addi	x11,x9,0
    80005a2c:	00048513          	addi	x10,x9,0
    80005a30:	cc8fd0ef          	jal	x1,80002ef8 <sleep>
    80005a34:	fcdff06f          	jal	x0,80005a00 <begin_op+0x40>
    80005a38:	00210797          	auipc	x15,0x210
    80005a3c:	06e7ae23          	sw	x14,124(x15) # 80215ab4 <log+0x1c>
    80005a40:	00210517          	auipc	x10,0x210
    80005a44:	05850513          	addi	x10,x10,88 # 80215a98 <log>
    80005a48:	f20fb0ef          	jal	x1,80001168 <release>
    80005a4c:	01813083          	ld	x1,24(x2)
    80005a50:	01013403          	ld	x8,16(x2)
    80005a54:	00813483          	ld	x9,8(x2)
    80005a58:	00013903          	ld	x18,0(x2)
    80005a5c:	02010113          	addi	x2,x2,32
    80005a60:	00008067          	jalr	x0,0(x1)

0000000080005a64 <end_op>:
    80005a64:	fc010113          	addi	x2,x2,-64
    80005a68:	02113c23          	sd	x1,56(x2)
    80005a6c:	02813823          	sd	x8,48(x2)
    80005a70:	02913423          	sd	x9,40(x2)
    80005a74:	03213023          	sd	x18,32(x2)
    80005a78:	04010413          	addi	x8,x2,64
    80005a7c:	00210497          	auipc	x9,0x210
    80005a80:	01c48493          	addi	x9,x9,28 # 80215a98 <log>
    80005a84:	00048513          	addi	x10,x9,0
    80005a88:	e08fb0ef          	jal	x1,80001090 <acquire>
    80005a8c:	01c4a783          	lw	x15,28(x9)
    80005a90:	fff7879b          	addiw	x15,x15,-1
    80005a94:	00078913          	addi	x18,x15,0
    80005a98:	00f4ae23          	sw	x15,28(x9)
    80005a9c:	0204a783          	lw	x15,32(x9)
    80005aa0:	04079c63          	bne	x15,x0,80005af8 <end_op+0x94>
    80005aa4:	06091663          	bne	x18,x0,80005b10 <end_op+0xac>
    80005aa8:	00210497          	auipc	x9,0x210
    80005aac:	ff048493          	addi	x9,x9,-16 # 80215a98 <log>
    80005ab0:	00100793          	addi	x15,x0,1
    80005ab4:	02f4a023          	sw	x15,32(x9)
    80005ab8:	00048513          	addi	x10,x9,0
    80005abc:	eacfb0ef          	jal	x1,80001168 <release>
    80005ac0:	0284a783          	lw	x15,40(x9)
    80005ac4:	06f04e63          	blt	x0,x15,80005b40 <end_op+0xdc>
    80005ac8:	00210517          	auipc	x10,0x210
    80005acc:	fd050513          	addi	x10,x10,-48 # 80215a98 <log>
    80005ad0:	dc0fb0ef          	jal	x1,80001090 <acquire>
    80005ad4:	00210797          	auipc	x15,0x210
    80005ad8:	fe07a223          	sw	x0,-28(x15) # 80215ab8 <log+0x20>
    80005adc:	00210517          	auipc	x10,0x210
    80005ae0:	fbc50513          	addi	x10,x10,-68 # 80215a98 <log>
    80005ae4:	c8cfd0ef          	jal	x1,80002f70 <wakeup>
    80005ae8:	00210517          	auipc	x10,0x210
    80005aec:	fb050513          	addi	x10,x10,-80 # 80215a98 <log>
    80005af0:	e78fb0ef          	jal	x1,80001168 <release>
    80005af4:	0340006f          	jal	x0,80005b28 <end_op+0xc4>
    80005af8:	01313c23          	sd	x19,24(x2)
    80005afc:	01413823          	sd	x20,16(x2)
    80005b00:	01513423          	sd	x21,8(x2)
    80005b04:	00004517          	auipc	x10,0x4
    80005b08:	c3c50513          	addi	x10,x10,-964 # 80009740 <etext+0x740>
    80005b0c:	fe1fa0ef          	jal	x1,80000aec <panic>
    80005b10:	00210517          	auipc	x10,0x210
    80005b14:	f8850513          	addi	x10,x10,-120 # 80215a98 <log>
    80005b18:	c58fd0ef          	jal	x1,80002f70 <wakeup>
    80005b1c:	00210517          	auipc	x10,0x210
    80005b20:	f7c50513          	addi	x10,x10,-132 # 80215a98 <log>
    80005b24:	e44fb0ef          	jal	x1,80001168 <release>
    80005b28:	03813083          	ld	x1,56(x2)
    80005b2c:	03013403          	ld	x8,48(x2)
    80005b30:	02813483          	ld	x9,40(x2)
    80005b34:	02013903          	ld	x18,32(x2)
    80005b38:	04010113          	addi	x2,x2,64
    80005b3c:	00008067          	jalr	x0,0(x1)
    80005b40:	01313c23          	sd	x19,24(x2)
    80005b44:	01413823          	sd	x20,16(x2)
    80005b48:	01513423          	sd	x21,8(x2)
    80005b4c:	00210a97          	auipc	x21,0x210
    80005b50:	f78a8a93          	addi	x21,x21,-136 # 80215ac4 <log+0x2c>
    80005b54:	00210a17          	auipc	x20,0x210
    80005b58:	f44a0a13          	addi	x20,x20,-188 # 80215a98 <log>
    80005b5c:	018a2583          	lw	x11,24(x20)
    80005b60:	012585bb          	addw	x11,x11,x18
    80005b64:	0015859b          	addiw	x11,x11,1
    80005b68:	024a2503          	lw	x10,36(x20)
    80005b6c:	d84fe0ef          	jal	x1,800040f0 <bread>
    80005b70:	00050493          	addi	x9,x10,0
    80005b74:	000aa583          	lw	x11,0(x21)
    80005b78:	024a2503          	lw	x10,36(x20)
    80005b7c:	d74fe0ef          	jal	x1,800040f0 <bread>
    80005b80:	00050993          	addi	x19,x10,0
    80005b84:	40000613          	addi	x12,x0,1024
    80005b88:	05850593          	addi	x11,x10,88
    80005b8c:	05848513          	addi	x10,x9,88
    80005b90:	f38fb0ef          	jal	x1,800012c8 <memmove>
    80005b94:	00048513          	addi	x10,x9,0
    80005b98:	e7cfe0ef          	jal	x1,80004214 <bwrite>
    80005b9c:	00098513          	addi	x10,x19,0
    80005ba0:	ec4fe0ef          	jal	x1,80004264 <brelse>
    80005ba4:	00048513          	addi	x10,x9,0
    80005ba8:	ebcfe0ef          	jal	x1,80004264 <brelse>
    80005bac:	0019091b          	addiw	x18,x18,1
    80005bb0:	004a8a93          	addi	x21,x21,4
    80005bb4:	028a2783          	lw	x15,40(x20)
    80005bb8:	faf942e3          	blt	x18,x15,80005b5c <end_op+0xf8>
    80005bbc:	ba1ff0ef          	jal	x1,8000575c <write_head>
    80005bc0:	00000513          	addi	x10,x0,0
    80005bc4:	c25ff0ef          	jal	x1,800057e8 <install_trans>
    80005bc8:	00210797          	auipc	x15,0x210
    80005bcc:	ee07ac23          	sw	x0,-264(x15) # 80215ac0 <log+0x28>
    80005bd0:	b8dff0ef          	jal	x1,8000575c <write_head>
    80005bd4:	01813983          	ld	x19,24(x2)
    80005bd8:	01013a03          	ld	x20,16(x2)
    80005bdc:	00813a83          	ld	x21,8(x2)
    80005be0:	ee9ff06f          	jal	x0,80005ac8 <end_op+0x64>

0000000080005be4 <log_write>:
    80005be4:	fe010113          	addi	x2,x2,-32
    80005be8:	00113c23          	sd	x1,24(x2)
    80005bec:	00813823          	sd	x8,16(x2)
    80005bf0:	00913423          	sd	x9,8(x2)
    80005bf4:	02010413          	addi	x8,x2,32
    80005bf8:	00050493          	addi	x9,x10,0
    80005bfc:	00210517          	auipc	x10,0x210
    80005c00:	e9c50513          	addi	x10,x10,-356 # 80215a98 <log>
    80005c04:	c8cfb0ef          	jal	x1,80001090 <acquire>
    80005c08:	00210617          	auipc	x12,0x210
    80005c0c:	eb862603          	lw	x12,-328(x12) # 80215ac0 <log+0x28>
    80005c10:	01d00793          	addi	x15,x0,29
    80005c14:	06c7cc63          	blt	x15,x12,80005c8c <log_write+0xa8>
    80005c18:	00210797          	auipc	x15,0x210
    80005c1c:	e9c7a783          	lw	x15,-356(x15) # 80215ab4 <log+0x1c>
    80005c20:	06f05c63          	bge	x0,x15,80005c98 <log_write+0xb4>
    80005c24:	00000793          	addi	x15,x0,0
    80005c28:	06c05e63          	bge	x0,x12,80005ca4 <log_write+0xc0>
    80005c2c:	00c4a583          	lw	x11,12(x9)
    80005c30:	00210717          	auipc	x14,0x210
    80005c34:	e9470713          	addi	x14,x14,-364 # 80215ac4 <log+0x2c>
    80005c38:	00000793          	addi	x15,x0,0
    80005c3c:	00072683          	lw	x13,0(x14)
    80005c40:	06b68263          	beq	x13,x11,80005ca4 <log_write+0xc0>
    80005c44:	0017879b          	addiw	x15,x15,1
    80005c48:	00470713          	addi	x14,x14,4
    80005c4c:	fef618e3          	bne	x12,x15,80005c3c <log_write+0x58>
    80005c50:	00261613          	slli	x12,x12,0x2
    80005c54:	02060613          	addi	x12,x12,32
    80005c58:	00210797          	auipc	x15,0x210
    80005c5c:	e4078793          	addi	x15,x15,-448 # 80215a98 <log>
    80005c60:	00c787b3          	add	x15,x15,x12
    80005c64:	00c4a703          	lw	x14,12(x9)
    80005c68:	00e7a623          	sw	x14,12(x15)
    80005c6c:	00048513          	addi	x10,x9,0
    80005c70:	eb0fe0ef          	jal	x1,80004320 <bpin>
    80005c74:	00210717          	auipc	x14,0x210
    80005c78:	e2470713          	addi	x14,x14,-476 # 80215a98 <log>
    80005c7c:	02872783          	lw	x15,40(x14)
    80005c80:	0017879b          	addiw	x15,x15,1
    80005c84:	02f72423          	sw	x15,40(x14)
    80005c88:	03c0006f          	jal	x0,80005cc4 <log_write+0xe0>
    80005c8c:	00004517          	auipc	x10,0x4
    80005c90:	ac450513          	addi	x10,x10,-1340 # 80009750 <etext+0x750>
    80005c94:	e59fa0ef          	jal	x1,80000aec <panic>
    80005c98:	00004517          	auipc	x10,0x4
    80005c9c:	ad050513          	addi	x10,x10,-1328 # 80009768 <etext+0x768>
    80005ca0:	e4dfa0ef          	jal	x1,80000aec <panic>
    80005ca4:	00279693          	slli	x13,x15,0x2
    80005ca8:	02068693          	addi	x13,x13,32
    80005cac:	00210717          	auipc	x14,0x210
    80005cb0:	dec70713          	addi	x14,x14,-532 # 80215a98 <log>
    80005cb4:	00d70733          	add	x14,x14,x13
    80005cb8:	00c4a683          	lw	x13,12(x9)
    80005cbc:	00d72623          	sw	x13,12(x14)
    80005cc0:	faf606e3          	beq	x12,x15,80005c6c <log_write+0x88>
    80005cc4:	00210517          	auipc	x10,0x210
    80005cc8:	dd450513          	addi	x10,x10,-556 # 80215a98 <log>
    80005ccc:	c9cfb0ef          	jal	x1,80001168 <release>
    80005cd0:	01813083          	ld	x1,24(x2)
    80005cd4:	01013403          	ld	x8,16(x2)
    80005cd8:	00813483          	ld	x9,8(x2)
    80005cdc:	02010113          	addi	x2,x2,32
    80005ce0:	00008067          	jalr	x0,0(x1)

0000000080005ce4 <initsleeplock>:
    80005ce4:	fe010113          	addi	x2,x2,-32
    80005ce8:	00113c23          	sd	x1,24(x2)
    80005cec:	00813823          	sd	x8,16(x2)
    80005cf0:	00913423          	sd	x9,8(x2)
    80005cf4:	01213023          	sd	x18,0(x2)
    80005cf8:	02010413          	addi	x8,x2,32
    80005cfc:	00050493          	addi	x9,x10,0
    80005d00:	00058913          	addi	x18,x11,0
    80005d04:	00004597          	auipc	x11,0x4
    80005d08:	a8458593          	addi	x11,x11,-1404 # 80009788 <etext+0x788>
    80005d0c:	00850513          	addi	x10,x10,8
    80005d10:	a9cfb0ef          	jal	x1,80000fac <initlock>
    80005d14:	0324b023          	sd	x18,32(x9)
    80005d18:	0004a023          	sw	x0,0(x9)
    80005d1c:	0204a423          	sw	x0,40(x9)
    80005d20:	01813083          	ld	x1,24(x2)
    80005d24:	01013403          	ld	x8,16(x2)
    80005d28:	00813483          	ld	x9,8(x2)
    80005d2c:	00013903          	ld	x18,0(x2)
    80005d30:	02010113          	addi	x2,x2,32
    80005d34:	00008067          	jalr	x0,0(x1)

0000000080005d38 <acquiresleep>:
    80005d38:	fe010113          	addi	x2,x2,-32
    80005d3c:	00113c23          	sd	x1,24(x2)
    80005d40:	00813823          	sd	x8,16(x2)
    80005d44:	00913423          	sd	x9,8(x2)
    80005d48:	01213023          	sd	x18,0(x2)
    80005d4c:	02010413          	addi	x8,x2,32
    80005d50:	00050493          	addi	x9,x10,0
    80005d54:	00850913          	addi	x18,x10,8
    80005d58:	00090513          	addi	x10,x18,0
    80005d5c:	b34fb0ef          	jal	x1,80001090 <acquire>
    80005d60:	0004a783          	lw	x15,0(x9)
    80005d64:	00078c63          	beq	x15,x0,80005d7c <acquiresleep+0x44>
    80005d68:	00090593          	addi	x11,x18,0
    80005d6c:	00048513          	addi	x10,x9,0
    80005d70:	988fd0ef          	jal	x1,80002ef8 <sleep>
    80005d74:	0004a783          	lw	x15,0(x9)
    80005d78:	fe0798e3          	bne	x15,x0,80005d68 <acquiresleep+0x30>
    80005d7c:	00100793          	addi	x15,x0,1
    80005d80:	00f4a023          	sw	x15,0(x9)
    80005d84:	89dfc0ef          	jal	x1,80002620 <myproc>
    80005d88:	03052783          	lw	x15,48(x10)
    80005d8c:	02f4a423          	sw	x15,40(x9)
    80005d90:	00090513          	addi	x10,x18,0
    80005d94:	bd4fb0ef          	jal	x1,80001168 <release>
    80005d98:	01813083          	ld	x1,24(x2)
    80005d9c:	01013403          	ld	x8,16(x2)
    80005da0:	00813483          	ld	x9,8(x2)
    80005da4:	00013903          	ld	x18,0(x2)
    80005da8:	02010113          	addi	x2,x2,32
    80005dac:	00008067          	jalr	x0,0(x1)

0000000080005db0 <releasesleep>:
    80005db0:	fe010113          	addi	x2,x2,-32
    80005db4:	00113c23          	sd	x1,24(x2)
    80005db8:	00813823          	sd	x8,16(x2)
    80005dbc:	00913423          	sd	x9,8(x2)
    80005dc0:	01213023          	sd	x18,0(x2)
    80005dc4:	02010413          	addi	x8,x2,32
    80005dc8:	00050493          	addi	x9,x10,0
    80005dcc:	00850913          	addi	x18,x10,8
    80005dd0:	00090513          	addi	x10,x18,0
    80005dd4:	abcfb0ef          	jal	x1,80001090 <acquire>
    80005dd8:	0004a023          	sw	x0,0(x9)
    80005ddc:	0204a423          	sw	x0,40(x9)
    80005de0:	00048513          	addi	x10,x9,0
    80005de4:	98cfd0ef          	jal	x1,80002f70 <wakeup>
    80005de8:	00090513          	addi	x10,x18,0
    80005dec:	b7cfb0ef          	jal	x1,80001168 <release>
    80005df0:	01813083          	ld	x1,24(x2)
    80005df4:	01013403          	ld	x8,16(x2)
    80005df8:	00813483          	ld	x9,8(x2)
    80005dfc:	00013903          	ld	x18,0(x2)
    80005e00:	02010113          	addi	x2,x2,32
    80005e04:	00008067          	jalr	x0,0(x1)

0000000080005e08 <holdingsleep>:
    80005e08:	fd010113          	addi	x2,x2,-48
    80005e0c:	02113423          	sd	x1,40(x2)
    80005e10:	02813023          	sd	x8,32(x2)
    80005e14:	00913c23          	sd	x9,24(x2)
    80005e18:	01213823          	sd	x18,16(x2)
    80005e1c:	03010413          	addi	x8,x2,48
    80005e20:	00050493          	addi	x9,x10,0
    80005e24:	00850913          	addi	x18,x10,8
    80005e28:	00090513          	addi	x10,x18,0
    80005e2c:	a64fb0ef          	jal	x1,80001090 <acquire>
    80005e30:	0004a783          	lw	x15,0(x9)
    80005e34:	02079663          	bne	x15,x0,80005e60 <holdingsleep+0x58>
    80005e38:	00000493          	addi	x9,x0,0
    80005e3c:	00090513          	addi	x10,x18,0
    80005e40:	b28fb0ef          	jal	x1,80001168 <release>
    80005e44:	00048513          	addi	x10,x9,0
    80005e48:	02813083          	ld	x1,40(x2)
    80005e4c:	02013403          	ld	x8,32(x2)
    80005e50:	01813483          	ld	x9,24(x2)
    80005e54:	01013903          	ld	x18,16(x2)
    80005e58:	03010113          	addi	x2,x2,48
    80005e5c:	00008067          	jalr	x0,0(x1)
    80005e60:	01313423          	sd	x19,8(x2)
    80005e64:	0284a783          	lw	x15,40(x9)
    80005e68:	00078993          	addi	x19,x15,0
    80005e6c:	fb4fc0ef          	jal	x1,80002620 <myproc>
    80005e70:	03052483          	lw	x9,48(x10)
    80005e74:	413484b3          	sub	x9,x9,x19
    80005e78:	0014b493          	sltiu	x9,x9,1
    80005e7c:	00813983          	ld	x19,8(x2)
    80005e80:	fbdff06f          	jal	x0,80005e3c <holdingsleep+0x34>

0000000080005e84 <fileinit>:
    80005e84:	ff010113          	addi	x2,x2,-16
    80005e88:	00113423          	sd	x1,8(x2)
    80005e8c:	00813023          	sd	x8,0(x2)
    80005e90:	01010413          	addi	x8,x2,16
    80005e94:	00004597          	auipc	x11,0x4
    80005e98:	90458593          	addi	x11,x11,-1788 # 80009798 <etext+0x798>
    80005e9c:	00210517          	auipc	x10,0x210
    80005ea0:	d4450513          	addi	x10,x10,-700 # 80215be0 <ftable>
    80005ea4:	908fb0ef          	jal	x1,80000fac <initlock>
    80005ea8:	00813083          	ld	x1,8(x2)
    80005eac:	00013403          	ld	x8,0(x2)
    80005eb0:	01010113          	addi	x2,x2,16
    80005eb4:	00008067          	jalr	x0,0(x1)

0000000080005eb8 <filealloc>:
    80005eb8:	fe010113          	addi	x2,x2,-32
    80005ebc:	00113c23          	sd	x1,24(x2)
    80005ec0:	00813823          	sd	x8,16(x2)
    80005ec4:	00913423          	sd	x9,8(x2)
    80005ec8:	02010413          	addi	x8,x2,32
    80005ecc:	00210517          	auipc	x10,0x210
    80005ed0:	d1450513          	addi	x10,x10,-748 # 80215be0 <ftable>
    80005ed4:	9bcfb0ef          	jal	x1,80001090 <acquire>
    80005ed8:	00210497          	auipc	x9,0x210
    80005edc:	d2048493          	addi	x9,x9,-736 # 80215bf8 <ftable+0x18>
    80005ee0:	00211717          	auipc	x14,0x211
    80005ee4:	cb870713          	addi	x14,x14,-840 # 80216b98 <ramdisk_lock>
    80005ee8:	0044a783          	lw	x15,4(x9)
    80005eec:	02078063          	beq	x15,x0,80005f0c <filealloc+0x54>
    80005ef0:	02848493          	addi	x9,x9,40
    80005ef4:	fee49ae3          	bne	x9,x14,80005ee8 <filealloc+0x30>
    80005ef8:	00210517          	auipc	x10,0x210
    80005efc:	ce850513          	addi	x10,x10,-792 # 80215be0 <ftable>
    80005f00:	a68fb0ef          	jal	x1,80001168 <release>
    80005f04:	00000493          	addi	x9,x0,0
    80005f08:	0180006f          	jal	x0,80005f20 <filealloc+0x68>
    80005f0c:	00100793          	addi	x15,x0,1
    80005f10:	00f4a223          	sw	x15,4(x9)
    80005f14:	00210517          	auipc	x10,0x210
    80005f18:	ccc50513          	addi	x10,x10,-820 # 80215be0 <ftable>
    80005f1c:	a4cfb0ef          	jal	x1,80001168 <release>
    80005f20:	00048513          	addi	x10,x9,0
    80005f24:	01813083          	ld	x1,24(x2)
    80005f28:	01013403          	ld	x8,16(x2)
    80005f2c:	00813483          	ld	x9,8(x2)
    80005f30:	02010113          	addi	x2,x2,32
    80005f34:	00008067          	jalr	x0,0(x1)

0000000080005f38 <filedup>:
    80005f38:	fe010113          	addi	x2,x2,-32
    80005f3c:	00113c23          	sd	x1,24(x2)
    80005f40:	00813823          	sd	x8,16(x2)
    80005f44:	00913423          	sd	x9,8(x2)
    80005f48:	02010413          	addi	x8,x2,32
    80005f4c:	00050493          	addi	x9,x10,0
    80005f50:	00210517          	auipc	x10,0x210
    80005f54:	c9050513          	addi	x10,x10,-880 # 80215be0 <ftable>
    80005f58:	938fb0ef          	jal	x1,80001090 <acquire>
    80005f5c:	0044a783          	lw	x15,4(x9)
    80005f60:	02f05863          	bge	x0,x15,80005f90 <filedup+0x58>
    80005f64:	0017879b          	addiw	x15,x15,1
    80005f68:	00f4a223          	sw	x15,4(x9)
    80005f6c:	00210517          	auipc	x10,0x210
    80005f70:	c7450513          	addi	x10,x10,-908 # 80215be0 <ftable>
    80005f74:	9f4fb0ef          	jal	x1,80001168 <release>
    80005f78:	00048513          	addi	x10,x9,0
    80005f7c:	01813083          	ld	x1,24(x2)
    80005f80:	01013403          	ld	x8,16(x2)
    80005f84:	00813483          	ld	x9,8(x2)
    80005f88:	02010113          	addi	x2,x2,32
    80005f8c:	00008067          	jalr	x0,0(x1)
    80005f90:	00004517          	auipc	x10,0x4
    80005f94:	81050513          	addi	x10,x10,-2032 # 800097a0 <etext+0x7a0>
    80005f98:	b55fa0ef          	jal	x1,80000aec <panic>

0000000080005f9c <fileclose>:
    80005f9c:	fc010113          	addi	x2,x2,-64
    80005fa0:	02113c23          	sd	x1,56(x2)
    80005fa4:	02813823          	sd	x8,48(x2)
    80005fa8:	02913423          	sd	x9,40(x2)
    80005fac:	04010413          	addi	x8,x2,64
    80005fb0:	00050493          	addi	x9,x10,0
    80005fb4:	00210517          	auipc	x10,0x210
    80005fb8:	c2c50513          	addi	x10,x10,-980 # 80215be0 <ftable>
    80005fbc:	8d4fb0ef          	jal	x1,80001090 <acquire>
    80005fc0:	0044a783          	lw	x15,4(x9)
    80005fc4:	06f05e63          	bge	x0,x15,80006040 <fileclose+0xa4>
    80005fc8:	fff7879b          	addiw	x15,x15,-1
    80005fcc:	00f4a223          	sw	x15,4(x9)
    80005fd0:	08f04663          	blt	x0,x15,8000605c <fileclose+0xc0>
    80005fd4:	03213023          	sd	x18,32(x2)
    80005fd8:	01313c23          	sd	x19,24(x2)
    80005fdc:	01413823          	sd	x20,16(x2)
    80005fe0:	01513423          	sd	x21,8(x2)
    80005fe4:	0004a783          	lw	x15,0(x9)
    80005fe8:	00078913          	addi	x18,x15,0
    80005fec:	0094c783          	lbu	x15,9(x9)
    80005ff0:	00078993          	addi	x19,x15,0
    80005ff4:	0104b783          	ld	x15,16(x9)
    80005ff8:	00078a13          	addi	x20,x15,0
    80005ffc:	0184b783          	ld	x15,24(x9)
    80006000:	00078a93          	addi	x21,x15,0
    80006004:	0004a223          	sw	x0,4(x9)
    80006008:	0004a023          	sw	x0,0(x9)
    8000600c:	00210517          	auipc	x10,0x210
    80006010:	bd450513          	addi	x10,x10,-1068 # 80215be0 <ftable>
    80006014:	954fb0ef          	jal	x1,80001168 <release>
    80006018:	00100793          	addi	x15,x0,1
    8000601c:	06f90063          	beq	x18,x15,8000607c <fileclose+0xe0>
    80006020:	ffe9079b          	addiw	x15,x18,-2
    80006024:	00100713          	addi	x14,x0,1
    80006028:	06f77a63          	bgeu	x14,x15,8000609c <fileclose+0x100>
    8000602c:	02013903          	ld	x18,32(x2)
    80006030:	01813983          	ld	x19,24(x2)
    80006034:	01013a03          	ld	x20,16(x2)
    80006038:	00813a83          	ld	x21,8(x2)
    8000603c:	02c0006f          	jal	x0,80006068 <fileclose+0xcc>
    80006040:	03213023          	sd	x18,32(x2)
    80006044:	01313c23          	sd	x19,24(x2)
    80006048:	01413823          	sd	x20,16(x2)
    8000604c:	01513423          	sd	x21,8(x2)
    80006050:	00003517          	auipc	x10,0x3
    80006054:	75850513          	addi	x10,x10,1880 # 800097a8 <etext+0x7a8>
    80006058:	a95fa0ef          	jal	x1,80000aec <panic>
    8000605c:	00210517          	auipc	x10,0x210
    80006060:	b8450513          	addi	x10,x10,-1148 # 80215be0 <ftable>
    80006064:	904fb0ef          	jal	x1,80001168 <release>
    80006068:	03813083          	ld	x1,56(x2)
    8000606c:	03013403          	ld	x8,48(x2)
    80006070:	02813483          	ld	x9,40(x2)
    80006074:	04010113          	addi	x2,x2,64
    80006078:	00008067          	jalr	x0,0(x1)
    8000607c:	00098593          	addi	x11,x19,0
    80006080:	000a0513          	addi	x10,x20,0
    80006084:	518000ef          	jal	x1,8000659c <pipeclose>
    80006088:	02013903          	ld	x18,32(x2)
    8000608c:	01813983          	ld	x19,24(x2)
    80006090:	01013a03          	ld	x20,16(x2)
    80006094:	00813a83          	ld	x21,8(x2)
    80006098:	fd1ff06f          	jal	x0,80006068 <fileclose+0xcc>
    8000609c:	925ff0ef          	jal	x1,800059c0 <begin_op>
    800060a0:	000a8513          	addi	x10,x21,0
    800060a4:	bf1fe0ef          	jal	x1,80004c94 <iput>
    800060a8:	9bdff0ef          	jal	x1,80005a64 <end_op>
    800060ac:	02013903          	ld	x18,32(x2)
    800060b0:	01813983          	ld	x19,24(x2)
    800060b4:	01013a03          	ld	x20,16(x2)
    800060b8:	00813a83          	ld	x21,8(x2)
    800060bc:	fadff06f          	jal	x0,80006068 <fileclose+0xcc>

00000000800060c0 <filestat>:
    800060c0:	fb010113          	addi	x2,x2,-80
    800060c4:	04113423          	sd	x1,72(x2)
    800060c8:	04813023          	sd	x8,64(x2)
    800060cc:	02913c23          	sd	x9,56(x2)
    800060d0:	03413023          	sd	x20,32(x2)
    800060d4:	05010413          	addi	x8,x2,80
    800060d8:	00050493          	addi	x9,x10,0
    800060dc:	00058a13          	addi	x20,x11,0
    800060e0:	d40fc0ef          	jal	x1,80002620 <myproc>
    800060e4:	0004a783          	lw	x15,0(x9)
    800060e8:	ffe7879b          	addiw	x15,x15,-2
    800060ec:	00100713          	addi	x14,x0,1
    800060f0:	06f76463          	bltu	x14,x15,80006158 <filestat+0x98>
    800060f4:	03213823          	sd	x18,48(x2)
    800060f8:	03313423          	sd	x19,40(x2)
    800060fc:	00050993          	addi	x19,x10,0
    80006100:	0184b503          	ld	x10,24(x9)
    80006104:	965fe0ef          	jal	x1,80004a68 <ilock>
    80006108:	fb840913          	addi	x18,x8,-72
    8000610c:	00090593          	addi	x11,x18,0
    80006110:	0184b503          	ld	x10,24(x9)
    80006114:	e85fe0ef          	jal	x1,80004f98 <stati>
    80006118:	0184b503          	ld	x10,24(x9)
    8000611c:	a41fe0ef          	jal	x1,80004b5c <iunlock>
    80006120:	01800693          	addi	x13,x0,24
    80006124:	00090613          	addi	x12,x18,0
    80006128:	000a0593          	addi	x11,x20,0
    8000612c:	0509b503          	ld	x10,80(x19)
    80006130:	86cfc0ef          	jal	x1,8000219c <copyout>
    80006134:	41f5551b          	sraiw	x10,x10,0x1f
    80006138:	03013903          	ld	x18,48(x2)
    8000613c:	02813983          	ld	x19,40(x2)
    80006140:	04813083          	ld	x1,72(x2)
    80006144:	04013403          	ld	x8,64(x2)
    80006148:	03813483          	ld	x9,56(x2)
    8000614c:	02013a03          	ld	x20,32(x2)
    80006150:	05010113          	addi	x2,x2,80
    80006154:	00008067          	jalr	x0,0(x1)
    80006158:	fff00513          	addi	x10,x0,-1
    8000615c:	fe5ff06f          	jal	x0,80006140 <filestat+0x80>

0000000080006160 <fileread>:
    80006160:	fd010113          	addi	x2,x2,-48
    80006164:	02113423          	sd	x1,40(x2)
    80006168:	02813023          	sd	x8,32(x2)
    8000616c:	01213823          	sd	x18,16(x2)
    80006170:	03010413          	addi	x8,x2,48
    80006174:	00854783          	lbu	x15,8(x10)
    80006178:	0e078c63          	beq	x15,x0,80006270 <fileread+0x110>
    8000617c:	00913c23          	sd	x9,24(x2)
    80006180:	01313423          	sd	x19,8(x2)
    80006184:	00050493          	addi	x9,x10,0
    80006188:	00058913          	addi	x18,x11,0
    8000618c:	00060993          	addi	x19,x12,0
    80006190:	00052783          	lw	x15,0(x10)
    80006194:	00100713          	addi	x14,x0,1
    80006198:	06e78863          	beq	x15,x14,80006208 <fileread+0xa8>
    8000619c:	00300713          	addi	x14,x0,3
    800061a0:	08e78063          	beq	x15,x14,80006220 <fileread+0xc0>
    800061a4:	00200713          	addi	x14,x0,2
    800061a8:	0ae79e63          	bne	x15,x14,80006264 <fileread+0x104>
    800061ac:	01853503          	ld	x10,24(x10)
    800061b0:	8b9fe0ef          	jal	x1,80004a68 <ilock>
    800061b4:	00098713          	addi	x14,x19,0
    800061b8:	0204a683          	lw	x13,32(x9)
    800061bc:	00090613          	addi	x12,x18,0
    800061c0:	00100593          	addi	x11,x0,1
    800061c4:	0184b503          	ld	x10,24(x9)
    800061c8:	e19fe0ef          	jal	x1,80004fe0 <readi>
    800061cc:	00050913          	addi	x18,x10,0
    800061d0:	00a05863          	bge	x0,x10,800061e0 <fileread+0x80>
    800061d4:	0204a783          	lw	x15,32(x9)
    800061d8:	00a787bb          	addw	x15,x15,x10
    800061dc:	02f4a023          	sw	x15,32(x9)
    800061e0:	0184b503          	ld	x10,24(x9)
    800061e4:	979fe0ef          	jal	x1,80004b5c <iunlock>
    800061e8:	01813483          	ld	x9,24(x2)
    800061ec:	00813983          	ld	x19,8(x2)
    800061f0:	00090513          	addi	x10,x18,0
    800061f4:	02813083          	ld	x1,40(x2)
    800061f8:	02013403          	ld	x8,32(x2)
    800061fc:	01013903          	ld	x18,16(x2)
    80006200:	03010113          	addi	x2,x2,48
    80006204:	00008067          	jalr	x0,0(x1)
    80006208:	01053503          	ld	x10,16(x10)
    8000620c:	594000ef          	jal	x1,800067a0 <piperead>
    80006210:	00050913          	addi	x18,x10,0
    80006214:	01813483          	ld	x9,24(x2)
    80006218:	00813983          	ld	x19,8(x2)
    8000621c:	fd5ff06f          	jal	x0,800061f0 <fileread+0x90>
    80006220:	02451783          	lh	x15,36(x10)
    80006224:	03079693          	slli	x13,x15,0x30
    80006228:	0306d693          	srli	x13,x13,0x30
    8000622c:	00900713          	addi	x14,x0,9
    80006230:	04d76663          	bltu	x14,x13,8000627c <fileread+0x11c>
    80006234:	00479793          	slli	x15,x15,0x4
    80006238:	00210717          	auipc	x14,0x210
    8000623c:	90870713          	addi	x14,x14,-1784 # 80215b40 <devsw>
    80006240:	00f707b3          	add	x15,x14,x15
    80006244:	0007b783          	ld	x15,0(x15)
    80006248:	04078463          	beq	x15,x0,80006290 <fileread+0x130>
    8000624c:	00100513          	addi	x10,x0,1
    80006250:	000780e7          	jalr	x1,0(x15)
    80006254:	00050913          	addi	x18,x10,0
    80006258:	01813483          	ld	x9,24(x2)
    8000625c:	00813983          	ld	x19,8(x2)
    80006260:	f91ff06f          	jal	x0,800061f0 <fileread+0x90>
    80006264:	00003517          	auipc	x10,0x3
    80006268:	55450513          	addi	x10,x10,1364 # 800097b8 <etext+0x7b8>
    8000626c:	881fa0ef          	jal	x1,80000aec <panic>
    80006270:	fff00793          	addi	x15,x0,-1
    80006274:	00078913          	addi	x18,x15,0
    80006278:	f79ff06f          	jal	x0,800061f0 <fileread+0x90>
    8000627c:	fff00793          	addi	x15,x0,-1
    80006280:	00078913          	addi	x18,x15,0
    80006284:	01813483          	ld	x9,24(x2)
    80006288:	00813983          	ld	x19,8(x2)
    8000628c:	f65ff06f          	jal	x0,800061f0 <fileread+0x90>
    80006290:	fff00793          	addi	x15,x0,-1
    80006294:	00078913          	addi	x18,x15,0
    80006298:	01813483          	ld	x9,24(x2)
    8000629c:	00813983          	ld	x19,8(x2)
    800062a0:	f51ff06f          	jal	x0,800061f0 <fileread+0x90>

00000000800062a4 <filewrite>:
    800062a4:	00954783          	lbu	x15,9(x10)
    800062a8:	1a078863          	beq	x15,x0,80006458 <filewrite+0x1b4>
    800062ac:	fa010113          	addi	x2,x2,-96
    800062b0:	04113c23          	sd	x1,88(x2)
    800062b4:	04813823          	sd	x8,80(x2)
    800062b8:	05213023          	sd	x18,64(x2)
    800062bc:	03513423          	sd	x21,40(x2)
    800062c0:	03613023          	sd	x22,32(x2)
    800062c4:	06010413          	addi	x8,x2,96
    800062c8:	00050913          	addi	x18,x10,0
    800062cc:	00058b13          	addi	x22,x11,0
    800062d0:	00060a93          	addi	x21,x12,0
    800062d4:	00052783          	lw	x15,0(x10)
    800062d8:	00100713          	addi	x14,x0,1
    800062dc:	04e78863          	beq	x15,x14,8000632c <filewrite+0x88>
    800062e0:	00300713          	addi	x14,x0,3
    800062e4:	04e78a63          	beq	x15,x14,80006338 <filewrite+0x94>
    800062e8:	00200713          	addi	x14,x0,2
    800062ec:	14e79463          	bne	x15,x14,80006434 <filewrite+0x190>
    800062f0:	03413823          	sd	x20,48(x2)
    800062f4:	0ec05e63          	bge	x0,x12,800063f0 <filewrite+0x14c>
    800062f8:	04913423          	sd	x9,72(x2)
    800062fc:	03313c23          	sd	x19,56(x2)
    80006300:	01713c23          	sd	x23,24(x2)
    80006304:	01813823          	sd	x24,16(x2)
    80006308:	01913423          	sd	x25,8(x2)
    8000630c:	00000a13          	addi	x20,x0,0
    80006310:	00001bb7          	lui	x23,0x1
    80006314:	c00b8b93          	addi	x23,x23,-1024 # c00 <_binary_fs_img_size-0x1f3400>
    80006318:	000017b7          	lui	x15,0x1
    8000631c:	c007879b          	addiw	x15,x15,-1024 # c00 <_binary_fs_img_size-0x1f3400>
    80006320:	00078c93          	addi	x25,x15,0
    80006324:	00100c13          	addi	x24,x0,1
    80006328:	09c0006f          	jal	x0,800063c4 <filewrite+0x120>
    8000632c:	01053503          	ld	x10,16(x10)
    80006330:	2f4000ef          	jal	x1,80006624 <pipewrite>
    80006334:	0e40006f          	jal	x0,80006418 <filewrite+0x174>
    80006338:	02451783          	lh	x15,36(x10)
    8000633c:	03079693          	slli	x13,x15,0x30
    80006340:	0306d693          	srli	x13,x13,0x30
    80006344:	00900713          	addi	x14,x0,9
    80006348:	10d76c63          	bltu	x14,x13,80006460 <filewrite+0x1bc>
    8000634c:	00479793          	slli	x15,x15,0x4
    80006350:	0020f717          	auipc	x14,0x20f
    80006354:	7f070713          	addi	x14,x14,2032 # 80215b40 <devsw>
    80006358:	00f707b3          	add	x15,x14,x15
    8000635c:	0087b783          	ld	x15,8(x15)
    80006360:	10078463          	beq	x15,x0,80006468 <filewrite+0x1c4>
    80006364:	00100513          	addi	x10,x0,1
    80006368:	000780e7          	jalr	x1,0(x15)
    8000636c:	0ac0006f          	jal	x0,80006418 <filewrite+0x174>
    80006370:	0009899b          	addiw	x19,x19,0
    80006374:	e4cff0ef          	jal	x1,800059c0 <begin_op>
    80006378:	01893503          	ld	x10,24(x18)
    8000637c:	eecfe0ef          	jal	x1,80004a68 <ilock>
    80006380:	00098713          	addi	x14,x19,0
    80006384:	02092683          	lw	x13,32(x18)
    80006388:	016a0633          	add	x12,x20,x22
    8000638c:	000c0593          	addi	x11,x24,0
    80006390:	01893503          	ld	x10,24(x18)
    80006394:	dd1fe0ef          	jal	x1,80005164 <writei>
    80006398:	00050493          	addi	x9,x10,0
    8000639c:	00a05863          	bge	x0,x10,800063ac <filewrite+0x108>
    800063a0:	02092783          	lw	x15,32(x18)
    800063a4:	00a787bb          	addw	x15,x15,x10
    800063a8:	02f92023          	sw	x15,32(x18)
    800063ac:	01893503          	ld	x10,24(x18)
    800063b0:	facfe0ef          	jal	x1,80004b5c <iunlock>
    800063b4:	eb0ff0ef          	jal	x1,80005a64 <end_op>
    800063b8:	04999063          	bne	x19,x9,800063f8 <filewrite+0x154>
    800063bc:	01448a3b          	addw	x20,x9,x20
    800063c0:	015a5c63          	bge	x20,x21,800063d8 <filewrite+0x134>
    800063c4:	414a87bb          	subw	x15,x21,x20
    800063c8:	00078993          	addi	x19,x15,0
    800063cc:	fafbd2e3          	bge	x23,x15,80006370 <filewrite+0xcc>
    800063d0:	000c8993          	addi	x19,x25,0
    800063d4:	f9dff06f          	jal	x0,80006370 <filewrite+0xcc>
    800063d8:	04813483          	ld	x9,72(x2)
    800063dc:	03813983          	ld	x19,56(x2)
    800063e0:	01813b83          	ld	x23,24(x2)
    800063e4:	01013c03          	ld	x24,16(x2)
    800063e8:	00813c83          	ld	x25,8(x2)
    800063ec:	0200006f          	jal	x0,8000640c <filewrite+0x168>
    800063f0:	00000a13          	addi	x20,x0,0
    800063f4:	0180006f          	jal	x0,8000640c <filewrite+0x168>
    800063f8:	04813483          	ld	x9,72(x2)
    800063fc:	03813983          	ld	x19,56(x2)
    80006400:	01813b83          	ld	x23,24(x2)
    80006404:	01013c03          	ld	x24,16(x2)
    80006408:	00813c83          	ld	x25,8(x2)
    8000640c:	074a9263          	bne	x21,x20,80006470 <filewrite+0x1cc>
    80006410:	000a8513          	addi	x10,x21,0
    80006414:	03013a03          	ld	x20,48(x2)
    80006418:	05813083          	ld	x1,88(x2)
    8000641c:	05013403          	ld	x8,80(x2)
    80006420:	04013903          	ld	x18,64(x2)
    80006424:	02813a83          	ld	x21,40(x2)
    80006428:	02013b03          	ld	x22,32(x2)
    8000642c:	06010113          	addi	x2,x2,96
    80006430:	00008067          	jalr	x0,0(x1)
    80006434:	04913423          	sd	x9,72(x2)
    80006438:	03313c23          	sd	x19,56(x2)
    8000643c:	03413823          	sd	x20,48(x2)
    80006440:	01713c23          	sd	x23,24(x2)
    80006444:	01813823          	sd	x24,16(x2)
    80006448:	01913423          	sd	x25,8(x2)
    8000644c:	00003517          	auipc	x10,0x3
    80006450:	37c50513          	addi	x10,x10,892 # 800097c8 <etext+0x7c8>
    80006454:	e98fa0ef          	jal	x1,80000aec <panic>
    80006458:	fff00513          	addi	x10,x0,-1
    8000645c:	00008067          	jalr	x0,0(x1)
    80006460:	fff00513          	addi	x10,x0,-1
    80006464:	fb5ff06f          	jal	x0,80006418 <filewrite+0x174>
    80006468:	fff00513          	addi	x10,x0,-1
    8000646c:	fadff06f          	jal	x0,80006418 <filewrite+0x174>
    80006470:	fff00513          	addi	x10,x0,-1
    80006474:	03013a03          	ld	x20,48(x2)
    80006478:	fa1ff06f          	jal	x0,80006418 <filewrite+0x174>

000000008000647c <pipealloc>:
    8000647c:	fd010113          	addi	x2,x2,-48
    80006480:	02113423          	sd	x1,40(x2)
    80006484:	02813023          	sd	x8,32(x2)
    80006488:	00913c23          	sd	x9,24(x2)
    8000648c:	01413023          	sd	x20,0(x2)
    80006490:	03010413          	addi	x8,x2,48
    80006494:	00050493          	addi	x9,x10,0
    80006498:	00058a13          	addi	x20,x11,0
    8000649c:	0005b023          	sd	x0,0(x11)
    800064a0:	00053023          	sd	x0,0(x10)
    800064a4:	a15ff0ef          	jal	x1,80005eb8 <filealloc>
    800064a8:	00a4b023          	sd	x10,0(x9)
    800064ac:	0a050c63          	beq	x10,x0,80006564 <pipealloc+0xe8>
    800064b0:	a09ff0ef          	jal	x1,80005eb8 <filealloc>
    800064b4:	00aa3023          	sd	x10,0(x20)
    800064b8:	0a050063          	beq	x10,x0,80006558 <pipealloc+0xdc>
    800064bc:	01213823          	sd	x18,16(x2)
    800064c0:	a71fa0ef          	jal	x1,80000f30 <kalloc>
    800064c4:	00050913          	addi	x18,x10,0
    800064c8:	06050c63          	beq	x10,x0,80006540 <pipealloc+0xc4>
    800064cc:	01313423          	sd	x19,8(x2)
    800064d0:	00100993          	addi	x19,x0,1
    800064d4:	23352023          	sw	x19,544(x10)
    800064d8:	23352223          	sw	x19,548(x10)
    800064dc:	20052e23          	sw	x0,540(x10)
    800064e0:	20052c23          	sw	x0,536(x10)
    800064e4:	00003597          	auipc	x11,0x3
    800064e8:	2f458593          	addi	x11,x11,756 # 800097d8 <etext+0x7d8>
    800064ec:	ac1fa0ef          	jal	x1,80000fac <initlock>
    800064f0:	0004b783          	ld	x15,0(x9)
    800064f4:	0137a023          	sw	x19,0(x15)
    800064f8:	0004b783          	ld	x15,0(x9)
    800064fc:	01378423          	sb	x19,8(x15)
    80006500:	0004b783          	ld	x15,0(x9)
    80006504:	000784a3          	sb	x0,9(x15)
    80006508:	0004b783          	ld	x15,0(x9)
    8000650c:	0127b823          	sd	x18,16(x15)
    80006510:	000a3783          	ld	x15,0(x20)
    80006514:	0137a023          	sw	x19,0(x15)
    80006518:	000a3783          	ld	x15,0(x20)
    8000651c:	00078423          	sb	x0,8(x15)
    80006520:	000a3783          	ld	x15,0(x20)
    80006524:	013784a3          	sb	x19,9(x15)
    80006528:	000a3783          	ld	x15,0(x20)
    8000652c:	0127b823          	sd	x18,16(x15)
    80006530:	00000513          	addi	x10,x0,0
    80006534:	01013903          	ld	x18,16(x2)
    80006538:	00813983          	ld	x19,8(x2)
    8000653c:	0400006f          	jal	x0,8000657c <pipealloc+0x100>
    80006540:	0004b503          	ld	x10,0(x9)
    80006544:	00050663          	beq	x10,x0,80006550 <pipealloc+0xd4>
    80006548:	01013903          	ld	x18,16(x2)
    8000654c:	0140006f          	jal	x0,80006560 <pipealloc+0xe4>
    80006550:	01013903          	ld	x18,16(x2)
    80006554:	0100006f          	jal	x0,80006564 <pipealloc+0xe8>
    80006558:	0004b503          	ld	x10,0(x9)
    8000655c:	02050c63          	beq	x10,x0,80006594 <pipealloc+0x118>
    80006560:	a3dff0ef          	jal	x1,80005f9c <fileclose>
    80006564:	000a3783          	ld	x15,0(x20)
    80006568:	fff00513          	addi	x10,x0,-1
    8000656c:	00078863          	beq	x15,x0,8000657c <pipealloc+0x100>
    80006570:	00078513          	addi	x10,x15,0
    80006574:	a29ff0ef          	jal	x1,80005f9c <fileclose>
    80006578:	fff00513          	addi	x10,x0,-1
    8000657c:	02813083          	ld	x1,40(x2)
    80006580:	02013403          	ld	x8,32(x2)
    80006584:	01813483          	ld	x9,24(x2)
    80006588:	00013a03          	ld	x20,0(x2)
    8000658c:	03010113          	addi	x2,x2,48
    80006590:	00008067          	jalr	x0,0(x1)
    80006594:	fff00513          	addi	x10,x0,-1
    80006598:	fe5ff06f          	jal	x0,8000657c <pipealloc+0x100>

000000008000659c <pipeclose>:
    8000659c:	fe010113          	addi	x2,x2,-32
    800065a0:	00113c23          	sd	x1,24(x2)
    800065a4:	00813823          	sd	x8,16(x2)
    800065a8:	00913423          	sd	x9,8(x2)
    800065ac:	01213023          	sd	x18,0(x2)
    800065b0:	02010413          	addi	x8,x2,32
    800065b4:	00050493          	addi	x9,x10,0
    800065b8:	00058913          	addi	x18,x11,0
    800065bc:	ad5fa0ef          	jal	x1,80001090 <acquire>
    800065c0:	04090063          	beq	x18,x0,80006600 <pipeclose+0x64>
    800065c4:	2204a223          	sw	x0,548(x9)
    800065c8:	21848513          	addi	x10,x9,536
    800065cc:	9a5fc0ef          	jal	x1,80002f70 <wakeup>
    800065d0:	2204a783          	lw	x15,544(x9)
    800065d4:	00079663          	bne	x15,x0,800065e0 <pipeclose+0x44>
    800065d8:	2244a783          	lw	x15,548(x9)
    800065dc:	02078a63          	beq	x15,x0,80006610 <pipeclose+0x74>
    800065e0:	00048513          	addi	x10,x9,0
    800065e4:	b85fa0ef          	jal	x1,80001168 <release>
    800065e8:	01813083          	ld	x1,24(x2)
    800065ec:	01013403          	ld	x8,16(x2)
    800065f0:	00813483          	ld	x9,8(x2)
    800065f4:	00013903          	ld	x18,0(x2)
    800065f8:	02010113          	addi	x2,x2,32
    800065fc:	00008067          	jalr	x0,0(x1)
    80006600:	2204a023          	sw	x0,544(x9)
    80006604:	21c48513          	addi	x10,x9,540
    80006608:	969fc0ef          	jal	x1,80002f70 <wakeup>
    8000660c:	fc5ff06f          	jal	x0,800065d0 <pipeclose+0x34>
    80006610:	00048513          	addi	x10,x9,0
    80006614:	b55fa0ef          	jal	x1,80001168 <release>
    80006618:	00048513          	addi	x10,x9,0
    8000661c:	f74fa0ef          	jal	x1,80000d90 <kfree>
    80006620:	fc9ff06f          	jal	x0,800065e8 <pipeclose+0x4c>

0000000080006624 <pipewrite>:
    80006624:	f9010113          	addi	x2,x2,-112
    80006628:	06113423          	sd	x1,104(x2)
    8000662c:	06813023          	sd	x8,96(x2)
    80006630:	04913c23          	sd	x9,88(x2)
    80006634:	05213823          	sd	x18,80(x2)
    80006638:	05313423          	sd	x19,72(x2)
    8000663c:	05413023          	sd	x20,64(x2)
    80006640:	03513c23          	sd	x21,56(x2)
    80006644:	07010413          	addi	x8,x2,112
    80006648:	00050493          	addi	x9,x10,0
    8000664c:	00058a93          	addi	x21,x11,0
    80006650:	00060a13          	addi	x20,x12,0
    80006654:	fcdfb0ef          	jal	x1,80002620 <myproc>
    80006658:	00050993          	addi	x19,x10,0
    8000665c:	00048513          	addi	x10,x9,0
    80006660:	a31fa0ef          	jal	x1,80001090 <acquire>
    80006664:	11405e63          	bge	x0,x20,80006780 <pipewrite+0x15c>
    80006668:	03613823          	sd	x22,48(x2)
    8000666c:	03713423          	sd	x23,40(x2)
    80006670:	03813023          	sd	x24,32(x2)
    80006674:	01913c23          	sd	x25,24(x2)
    80006678:	01a13823          	sd	x26,16(x2)
    8000667c:	00000913          	addi	x18,x0,0
    80006680:	f9f40c13          	addi	x24,x8,-97
    80006684:	00100b93          	addi	x23,x0,1
    80006688:	fff00b13          	addi	x22,x0,-1
    8000668c:	21848d13          	addi	x26,x9,536
    80006690:	21c48c93          	addi	x25,x9,540
    80006694:	0640006f          	jal	x0,800066f8 <pipewrite+0xd4>
    80006698:	00048513          	addi	x10,x9,0
    8000669c:	acdfa0ef          	jal	x1,80001168 <release>
    800066a0:	fff00913          	addi	x18,x0,-1
    800066a4:	03013b03          	ld	x22,48(x2)
    800066a8:	02813b83          	ld	x23,40(x2)
    800066ac:	02013c03          	ld	x24,32(x2)
    800066b0:	01813c83          	ld	x25,24(x2)
    800066b4:	01013d03          	ld	x26,16(x2)
    800066b8:	00090513          	addi	x10,x18,0
    800066bc:	06813083          	ld	x1,104(x2)
    800066c0:	06013403          	ld	x8,96(x2)
    800066c4:	05813483          	ld	x9,88(x2)
    800066c8:	05013903          	ld	x18,80(x2)
    800066cc:	04813983          	ld	x19,72(x2)
    800066d0:	04013a03          	ld	x20,64(x2)
    800066d4:	03813a83          	ld	x21,56(x2)
    800066d8:	07010113          	addi	x2,x2,112
    800066dc:	00008067          	jalr	x0,0(x1)
    800066e0:	000d0513          	addi	x10,x26,0
    800066e4:	88dfc0ef          	jal	x1,80002f70 <wakeup>
    800066e8:	00048593          	addi	x11,x9,0
    800066ec:	000c8513          	addi	x10,x25,0
    800066f0:	809fc0ef          	jal	x1,80002ef8 <sleep>
    800066f4:	07495263          	bge	x18,x20,80006758 <pipewrite+0x134>
    800066f8:	2204a783          	lw	x15,544(x9)
    800066fc:	f8078ee3          	beq	x15,x0,80006698 <pipewrite+0x74>
    80006700:	00098513          	addi	x10,x19,0
    80006704:	b35fc0ef          	jal	x1,80003238 <killed>
    80006708:	f80518e3          	bne	x10,x0,80006698 <pipewrite+0x74>
    8000670c:	2184a783          	lw	x15,536(x9)
    80006710:	21c4a703          	lw	x14,540(x9)
    80006714:	2007879b          	addiw	x15,x15,512
    80006718:	fcf704e3          	beq	x14,x15,800066e0 <pipewrite+0xbc>
    8000671c:	000b8693          	addi	x13,x23,0
    80006720:	01590633          	add	x12,x18,x21
    80006724:	000c0593          	addi	x11,x24,0
    80006728:	0509b503          	ld	x10,80(x19)
    8000672c:	bb5fb0ef          	jal	x1,800022e0 <copyin>
    80006730:	05650c63          	beq	x10,x22,80006788 <pipewrite+0x164>
    80006734:	21c4a783          	lw	x15,540(x9)
    80006738:	0017871b          	addiw	x14,x15,1
    8000673c:	20e4ae23          	sw	x14,540(x9)
    80006740:	1ff7f793          	andi	x15,x15,511
    80006744:	00f487b3          	add	x15,x9,x15
    80006748:	f9f44703          	lbu	x14,-97(x8)
    8000674c:	00e78c23          	sb	x14,24(x15)
    80006750:	0019091b          	addiw	x18,x18,1
    80006754:	fa1ff06f          	jal	x0,800066f4 <pipewrite+0xd0>
    80006758:	03013b03          	ld	x22,48(x2)
    8000675c:	02813b83          	ld	x23,40(x2)
    80006760:	02013c03          	ld	x24,32(x2)
    80006764:	01813c83          	ld	x25,24(x2)
    80006768:	01013d03          	ld	x26,16(x2)
    8000676c:	21848513          	addi	x10,x9,536
    80006770:	801fc0ef          	jal	x1,80002f70 <wakeup>
    80006774:	00048513          	addi	x10,x9,0
    80006778:	9f1fa0ef          	jal	x1,80001168 <release>
    8000677c:	f3dff06f          	jal	x0,800066b8 <pipewrite+0x94>
    80006780:	00000913          	addi	x18,x0,0
    80006784:	fe9ff06f          	jal	x0,8000676c <pipewrite+0x148>
    80006788:	03013b03          	ld	x22,48(x2)
    8000678c:	02813b83          	ld	x23,40(x2)
    80006790:	02013c03          	ld	x24,32(x2)
    80006794:	01813c83          	ld	x25,24(x2)
    80006798:	01013d03          	ld	x26,16(x2)
    8000679c:	fd1ff06f          	jal	x0,8000676c <pipewrite+0x148>

00000000800067a0 <piperead>:
    800067a0:	fa010113          	addi	x2,x2,-96
    800067a4:	04113c23          	sd	x1,88(x2)
    800067a8:	04813823          	sd	x8,80(x2)
    800067ac:	04913423          	sd	x9,72(x2)
    800067b0:	05213023          	sd	x18,64(x2)
    800067b4:	03313c23          	sd	x19,56(x2)
    800067b8:	03413823          	sd	x20,48(x2)
    800067bc:	03513423          	sd	x21,40(x2)
    800067c0:	06010413          	addi	x8,x2,96
    800067c4:	00050493          	addi	x9,x10,0
    800067c8:	00058913          	addi	x18,x11,0
    800067cc:	00060a93          	addi	x21,x12,0
    800067d0:	e51fb0ef          	jal	x1,80002620 <myproc>
    800067d4:	00050a13          	addi	x20,x10,0
    800067d8:	00048513          	addi	x10,x9,0
    800067dc:	8b5fa0ef          	jal	x1,80001090 <acquire>
    800067e0:	2184a703          	lw	x14,536(x9)
    800067e4:	21c4a783          	lw	x15,540(x9)
    800067e8:	21848993          	addi	x19,x9,536
    800067ec:	04f71063          	bne	x14,x15,8000682c <piperead+0x8c>
    800067f0:	2244a783          	lw	x15,548(x9)
    800067f4:	04078c63          	beq	x15,x0,8000684c <piperead+0xac>
    800067f8:	000a0513          	addi	x10,x20,0
    800067fc:	a3dfc0ef          	jal	x1,80003238 <killed>
    80006800:	02051e63          	bne	x10,x0,8000683c <piperead+0x9c>
    80006804:	00048593          	addi	x11,x9,0
    80006808:	00098513          	addi	x10,x19,0
    8000680c:	eecfc0ef          	jal	x1,80002ef8 <sleep>
    80006810:	2184a703          	lw	x14,536(x9)
    80006814:	21c4a783          	lw	x15,540(x9)
    80006818:	fcf70ce3          	beq	x14,x15,800067f0 <piperead+0x50>
    8000681c:	03613023          	sd	x22,32(x2)
    80006820:	01713c23          	sd	x23,24(x2)
    80006824:	01813823          	sd	x24,16(x2)
    80006828:	0300006f          	jal	x0,80006858 <piperead+0xb8>
    8000682c:	03613023          	sd	x22,32(x2)
    80006830:	01713c23          	sd	x23,24(x2)
    80006834:	01813823          	sd	x24,16(x2)
    80006838:	0200006f          	jal	x0,80006858 <piperead+0xb8>
    8000683c:	00048513          	addi	x10,x9,0
    80006840:	929fa0ef          	jal	x1,80001168 <release>
    80006844:	fff00993          	addi	x19,x0,-1
    80006848:	08c0006f          	jal	x0,800068d4 <piperead+0x134>
    8000684c:	03613023          	sd	x22,32(x2)
    80006850:	01713c23          	sd	x23,24(x2)
    80006854:	01813823          	sd	x24,16(x2)
    80006858:	00000993          	addi	x19,x0,0
    8000685c:	faf40c13          	addi	x24,x8,-81
    80006860:	00100b93          	addi	x23,x0,1
    80006864:	fff00b13          	addi	x22,x0,-1
    80006868:	05505863          	bge	x0,x21,800068b8 <piperead+0x118>
    8000686c:	2184a783          	lw	x15,536(x9)
    80006870:	21c4a703          	lw	x14,540(x9)
    80006874:	04f70263          	beq	x14,x15,800068b8 <piperead+0x118>
    80006878:	1ff7f793          	andi	x15,x15,511
    8000687c:	00f487b3          	add	x15,x9,x15
    80006880:	0187c783          	lbu	x15,24(x15)
    80006884:	faf407a3          	sb	x15,-81(x8)
    80006888:	000b8693          	addi	x13,x23,0
    8000688c:	000c0613          	addi	x12,x24,0
    80006890:	00090593          	addi	x11,x18,0
    80006894:	050a3503          	ld	x10,80(x20)
    80006898:	905fb0ef          	jal	x1,8000219c <copyout>
    8000689c:	07650063          	beq	x10,x22,800068fc <piperead+0x15c>
    800068a0:	2184a783          	lw	x15,536(x9)
    800068a4:	0017879b          	addiw	x15,x15,1
    800068a8:	20f4ac23          	sw	x15,536(x9)
    800068ac:	0019899b          	addiw	x19,x19,1
    800068b0:	00190913          	addi	x18,x18,1
    800068b4:	fb3a9ce3          	bne	x21,x19,8000686c <piperead+0xcc>
    800068b8:	21c48513          	addi	x10,x9,540
    800068bc:	eb4fc0ef          	jal	x1,80002f70 <wakeup>
    800068c0:	00048513          	addi	x10,x9,0
    800068c4:	8a5fa0ef          	jal	x1,80001168 <release>
    800068c8:	02013b03          	ld	x22,32(x2)
    800068cc:	01813b83          	ld	x23,24(x2)
    800068d0:	01013c03          	ld	x24,16(x2)
    800068d4:	00098513          	addi	x10,x19,0
    800068d8:	05813083          	ld	x1,88(x2)
    800068dc:	05013403          	ld	x8,80(x2)
    800068e0:	04813483          	ld	x9,72(x2)
    800068e4:	04013903          	ld	x18,64(x2)
    800068e8:	03813983          	ld	x19,56(x2)
    800068ec:	03013a03          	ld	x20,48(x2)
    800068f0:	02813a83          	ld	x21,40(x2)
    800068f4:	06010113          	addi	x2,x2,96
    800068f8:	00008067          	jalr	x0,0(x1)
    800068fc:	fa099ee3          	bne	x19,x0,800068b8 <piperead+0x118>
    80006900:	00050993          	addi	x19,x10,0
    80006904:	fb5ff06f          	jal	x0,800068b8 <piperead+0x118>

0000000080006908 <flags2perm>:
    80006908:	ff010113          	addi	x2,x2,-16
    8000690c:	00113423          	sd	x1,8(x2)
    80006910:	00813023          	sd	x8,0(x2)
    80006914:	01010413          	addi	x8,x2,16
    80006918:	00050793          	addi	x15,x10,0
    8000691c:	0035151b          	slliw	x10,x10,0x3
    80006920:	00857513          	andi	x10,x10,8
    80006924:	0027f793          	andi	x15,x15,2
    80006928:	00078463          	beq	x15,x0,80006930 <flags2perm+0x28>
    8000692c:	00456513          	ori	x10,x10,4
    80006930:	00813083          	ld	x1,8(x2)
    80006934:	00013403          	ld	x8,0(x2)
    80006938:	01010113          	addi	x2,x2,16
    8000693c:	00008067          	jalr	x0,0(x1)

0000000080006940 <kexec>:
    80006940:	de010113          	addi	x2,x2,-544
    80006944:	20113c23          	sd	x1,536(x2)
    80006948:	20813823          	sd	x8,528(x2)
    8000694c:	20913423          	sd	x9,520(x2)
    80006950:	21213023          	sd	x18,512(x2)
    80006954:	22010413          	addi	x8,x2,544
    80006958:	00050913          	addi	x18,x10,0
    8000695c:	dea43823          	sd	x10,-528(x8)
    80006960:	e0b43023          	sd	x11,-512(x8)
    80006964:	cbdfb0ef          	jal	x1,80002620 <myproc>
    80006968:	00050493          	addi	x9,x10,0
    8000696c:	854ff0ef          	jal	x1,800059c0 <begin_op>
    80006970:	00090513          	addi	x10,x18,0
    80006974:	d91fe0ef          	jal	x1,80005704 <namei>
    80006978:	06050663          	beq	x10,x0,800069e4 <kexec+0xa4>
    8000697c:	1f413823          	sd	x20,496(x2)
    80006980:	00050a13          	addi	x20,x10,0
    80006984:	8e4fe0ef          	jal	x1,80004a68 <ilock>
    80006988:	04000713          	addi	x14,x0,64
    8000698c:	00000693          	addi	x13,x0,0
    80006990:	e5040613          	addi	x12,x8,-432
    80006994:	00000593          	addi	x11,x0,0
    80006998:	000a0513          	addi	x10,x20,0
    8000699c:	e44fe0ef          	jal	x1,80004fe0 <readi>
    800069a0:	04000793          	addi	x15,x0,64
    800069a4:	00f51a63          	bne	x10,x15,800069b8 <kexec+0x78>
    800069a8:	e5042703          	lw	x14,-432(x8)
    800069ac:	464c47b7          	lui	x15,0x464c4
    800069b0:	57f78793          	addi	x15,x15,1407 # 464c457f <_binary_fs_img_size+0x462d057f>
    800069b4:	02f70e63          	beq	x14,x15,800069f0 <kexec+0xb0>
    800069b8:	000a0513          	addi	x10,x20,0
    800069bc:	b98fe0ef          	jal	x1,80004d54 <iunlockput>
    800069c0:	8a4ff0ef          	jal	x1,80005a64 <end_op>
    800069c4:	fff00513          	addi	x10,x0,-1
    800069c8:	1f013a03          	ld	x20,496(x2)
    800069cc:	21813083          	ld	x1,536(x2)
    800069d0:	21013403          	ld	x8,528(x2)
    800069d4:	20813483          	ld	x9,520(x2)
    800069d8:	20013903          	ld	x18,512(x2)
    800069dc:	22010113          	addi	x2,x2,544
    800069e0:	00008067          	jalr	x0,0(x1)
    800069e4:	880ff0ef          	jal	x1,80005a64 <end_op>
    800069e8:	fff00513          	addi	x10,x0,-1
    800069ec:	fe1ff06f          	jal	x0,800069cc <kexec+0x8c>
    800069f0:	1f613023          	sd	x22,480(x2)
    800069f4:	00048513          	addi	x10,x9,0
    800069f8:	da9fb0ef          	jal	x1,800027a0 <proc_pagetable>
    800069fc:	00050b13          	addi	x22,x10,0
    80006a00:	34050a63          	beq	x10,x0,80006d54 <kexec+0x414>
    80006a04:	1f313c23          	sd	x19,504(x2)
    80006a08:	1f513423          	sd	x21,488(x2)
    80006a0c:	1d713c23          	sd	x23,472(x2)
    80006a10:	1d813823          	sd	x24,464(x2)
    80006a14:	1d913423          	sd	x25,456(x2)
    80006a18:	1da13023          	sd	x26,448(x2)
    80006a1c:	e8845783          	lhu	x15,-376(x8)
    80006a20:	1a078c63          	beq	x15,x0,80006bd8 <kexec+0x298>
    80006a24:	1bb13c23          	sd	x27,440(x2)
    80006a28:	e7042683          	lw	x13,-400(x8)
    80006a2c:	00000913          	addi	x18,x0,0
    80006a30:	00000d13          	addi	x26,x0,0
    80006a34:	03800d93          	addi	x27,x0,56
    80006a38:	00001cb7          	lui	x25,0x1
    80006a3c:	fffc8793          	addi	x15,x25,-1 # fff <_binary_fs_img_size-0x1f3001>
    80006a40:	def43423          	sd	x15,-536(x8)
    80006a44:	00001ab7          	lui	x21,0x1
    80006a48:	07c0006f          	jal	x0,80006ac4 <kexec+0x184>
    80006a4c:	00003517          	auipc	x10,0x3
    80006a50:	d9450513          	addi	x10,x10,-620 # 800097e0 <etext+0x7e0>
    80006a54:	898fa0ef          	jal	x1,80000aec <panic>
    80006a58:	0009091b          	addiw	x18,x18,0
    80006a5c:	00090713          	addi	x14,x18,0
    80006a60:	009b86bb          	addw	x13,x23,x9
    80006a64:	00000593          	addi	x11,x0,0
    80006a68:	000a0513          	addi	x10,x20,0
    80006a6c:	d74fe0ef          	jal	x1,80004fe0 <readi>
    80006a70:	2ea91863          	bne	x18,x10,80006d60 <kexec+0x420>
    80006a74:	009a84bb          	addw	x9,x21,x9
    80006a78:	0334fa63          	bgeu	x9,x19,80006aac <kexec+0x16c>
    80006a7c:	02049593          	slli	x11,x9,0x20
    80006a80:	0205d593          	srli	x11,x11,0x20
    80006a84:	018585b3          	add	x11,x11,x24
    80006a88:	000b0513          	addi	x10,x22,0
    80006a8c:	cf9fa0ef          	jal	x1,80001784 <walkaddr>
    80006a90:	00050613          	addi	x12,x10,0
    80006a94:	fa050ce3          	beq	x10,x0,80006a4c <kexec+0x10c>
    80006a98:	409987bb          	subw	x15,x19,x9
    80006a9c:	00078913          	addi	x18,x15,0
    80006aa0:	fafcfce3          	bgeu	x25,x15,80006a58 <kexec+0x118>
    80006aa4:	000a8913          	addi	x18,x21,0 # 1000 <_binary_fs_img_size-0x1f3000>
    80006aa8:	fb1ff06f          	jal	x0,80006a58 <kexec+0x118>
    80006aac:	df843903          	ld	x18,-520(x8)
    80006ab0:	001d0d1b          	addiw	x26,x26,1
    80006ab4:	e0843783          	ld	x15,-504(x8)
    80006ab8:	0387869b          	addiw	x13,x15,56
    80006abc:	e8845783          	lhu	x15,-376(x8)
    80006ac0:	08fd5a63          	bge	x26,x15,80006b54 <kexec+0x214>
    80006ac4:	e0d43423          	sd	x13,-504(x8)
    80006ac8:	000d8713          	addi	x14,x27,0
    80006acc:	e1840613          	addi	x12,x8,-488
    80006ad0:	00000593          	addi	x11,x0,0
    80006ad4:	000a0513          	addi	x10,x20,0
    80006ad8:	d08fe0ef          	jal	x1,80004fe0 <readi>
    80006adc:	29b51063          	bne	x10,x27,80006d5c <kexec+0x41c>
    80006ae0:	e1842783          	lw	x15,-488(x8)
    80006ae4:	00100713          	addi	x14,x0,1
    80006ae8:	fce794e3          	bne	x15,x14,80006ab0 <kexec+0x170>
    80006aec:	e4043483          	ld	x9,-448(x8)
    80006af0:	e3843783          	ld	x15,-456(x8)
    80006af4:	28f4ee63          	bltu	x9,x15,80006d90 <kexec+0x450>
    80006af8:	e2843783          	ld	x15,-472(x8)
    80006afc:	00f484b3          	add	x9,x9,x15
    80006b00:	28f4ec63          	bltu	x9,x15,80006d98 <kexec+0x458>
    80006b04:	de843703          	ld	x14,-536(x8)
    80006b08:	00e7f7b3          	and	x15,x15,x14
    80006b0c:	28079a63          	bne	x15,x0,80006da0 <kexec+0x460>
    80006b10:	e1c42503          	lw	x10,-484(x8)
    80006b14:	df5ff0ef          	jal	x1,80006908 <flags2perm>
    80006b18:	00050693          	addi	x13,x10,0
    80006b1c:	00048613          	addi	x12,x9,0
    80006b20:	00090593          	addi	x11,x18,0
    80006b24:	000b0513          	addi	x10,x22,0
    80006b28:	8d0fb0ef          	jal	x1,80001bf8 <uvmalloc>
    80006b2c:	dea43c23          	sd	x10,-520(x8)
    80006b30:	26050c63          	beq	x10,x0,80006da8 <kexec+0x468>
    80006b34:	e3842983          	lw	x19,-456(x8)
    80006b38:	00098a63          	beq	x19,x0,80006b4c <kexec+0x20c>
    80006b3c:	e2843c03          	ld	x24,-472(x8)
    80006b40:	e2042b83          	lw	x23,-480(x8)
    80006b44:	00000493          	addi	x9,x0,0
    80006b48:	f35ff06f          	jal	x0,80006a7c <kexec+0x13c>
    80006b4c:	df843903          	ld	x18,-520(x8)
    80006b50:	f61ff06f          	jal	x0,80006ab0 <kexec+0x170>
    80006b54:	1b813d83          	ld	x27,440(x2)
    80006b58:	000a0513          	addi	x10,x20,0
    80006b5c:	9f8fe0ef          	jal	x1,80004d54 <iunlockput>
    80006b60:	f05fe0ef          	jal	x1,80005a64 <end_op>
    80006b64:	abdfb0ef          	jal	x1,80002620 <myproc>
    80006b68:	00050a93          	addi	x21,x10,0
    80006b6c:	04853d03          	ld	x26,72(x10)
    80006b70:	000019b7          	lui	x19,0x1
    80006b74:	fff98993          	addi	x19,x19,-1 # fff <_binary_fs_img_size-0x1f3001>
    80006b78:	013909b3          	add	x19,x18,x19
    80006b7c:	fffff7b7          	lui	x15,0xfffff
    80006b80:	00f9f9b3          	and	x19,x19,x15
    80006b84:	00400693          	addi	x13,x0,4
    80006b88:	00002637          	lui	x12,0x2
    80006b8c:	00c98633          	add	x12,x19,x12
    80006b90:	00098593          	addi	x11,x19,0
    80006b94:	000b0513          	addi	x10,x22,0
    80006b98:	860fb0ef          	jal	x1,80001bf8 <uvmalloc>
    80006b9c:	00050a13          	addi	x20,x10,0
    80006ba0:	04051063          	bne	x10,x0,80006be0 <kexec+0x2a0>
    80006ba4:	00098593          	addi	x11,x19,0
    80006ba8:	000b0513          	addi	x10,x22,0
    80006bac:	cc5fb0ef          	jal	x1,80002870 <proc_freepagetable>
    80006bb0:	fff00513          	addi	x10,x0,-1
    80006bb4:	1f813983          	ld	x19,504(x2)
    80006bb8:	1f013a03          	ld	x20,496(x2)
    80006bbc:	1e813a83          	ld	x21,488(x2)
    80006bc0:	1e013b03          	ld	x22,480(x2)
    80006bc4:	1d813b83          	ld	x23,472(x2)
    80006bc8:	1d013c03          	ld	x24,464(x2)
    80006bcc:	1c813c83          	ld	x25,456(x2)
    80006bd0:	1c013d03          	ld	x26,448(x2)
    80006bd4:	df9ff06f          	jal	x0,800069cc <kexec+0x8c>
    80006bd8:	00000913          	addi	x18,x0,0
    80006bdc:	f7dff06f          	jal	x0,80006b58 <kexec+0x218>
    80006be0:	ffffe5b7          	lui	x11,0xffffe
    80006be4:	00b505b3          	add	x11,x10,x11
    80006be8:	000b0513          	addi	x10,x22,0
    80006bec:	b2cfb0ef          	jal	x1,80001f18 <uvmclear>
    80006bf0:	800a0b93          	addi	x23,x20,-2048
    80006bf4:	800b8b93          	addi	x23,x23,-2048
    80006bf8:	e0043783          	ld	x15,-512(x8)
    80006bfc:	0007b503          	ld	x10,0(x15) # fffffffffffff000 <end+0xffffffff7fbf4450>
    80006c00:	000a0913          	addi	x18,x20,0
    80006c04:	00000493          	addi	x9,x0,0
    80006c08:	e9040c93          	addi	x25,x8,-368
    80006c0c:	02000c13          	addi	x24,x0,32
    80006c10:	06050863          	beq	x10,x0,80006c80 <kexec+0x340>
    80006c14:	885fa0ef          	jal	x1,80001498 <strlen>
    80006c18:	0015079b          	addiw	x15,x10,1
    80006c1c:	40f907b3          	sub	x15,x18,x15
    80006c20:	ff07f913          	andi	x18,x15,-16
    80006c24:	19796663          	bltu	x18,x23,80006db0 <kexec+0x470>
    80006c28:	e0043783          	ld	x15,-512(x8)
    80006c2c:	0007b983          	ld	x19,0(x15)
    80006c30:	00098513          	addi	x10,x19,0
    80006c34:	865fa0ef          	jal	x1,80001498 <strlen>
    80006c38:	0015069b          	addiw	x13,x10,1
    80006c3c:	00098613          	addi	x12,x19,0
    80006c40:	00090593          	addi	x11,x18,0
    80006c44:	000b0513          	addi	x10,x22,0
    80006c48:	d54fb0ef          	jal	x1,8000219c <copyout>
    80006c4c:	16054663          	blt	x10,x0,80006db8 <kexec+0x478>
    80006c50:	00349793          	slli	x15,x9,0x3
    80006c54:	00fc87b3          	add	x15,x25,x15
    80006c58:	0127b023          	sd	x18,0(x15)
    80006c5c:	00148493          	addi	x9,x9,1
    80006c60:	e0043783          	ld	x15,-512(x8)
    80006c64:	00878793          	addi	x15,x15,8
    80006c68:	e0f43023          	sd	x15,-512(x8)
    80006c6c:	0007b503          	ld	x10,0(x15)
    80006c70:	00050863          	beq	x10,x0,80006c80 <kexec+0x340>
    80006c74:	fb8490e3          	bne	x9,x24,80006c14 <kexec+0x2d4>
    80006c78:	000a0993          	addi	x19,x20,0
    80006c7c:	f29ff06f          	jal	x0,80006ba4 <kexec+0x264>
    80006c80:	00349793          	slli	x15,x9,0x3
    80006c84:	f9078793          	addi	x15,x15,-112
    80006c88:	008787b3          	add	x15,x15,x8
    80006c8c:	f007b023          	sd	x0,-256(x15)
    80006c90:	00349693          	slli	x13,x9,0x3
    80006c94:	00868693          	addi	x13,x13,8
    80006c98:	40d90933          	sub	x18,x18,x13
    80006c9c:	ff097913          	andi	x18,x18,-16
    80006ca0:	000a0993          	addi	x19,x20,0
    80006ca4:	f17960e3          	bltu	x18,x23,80006ba4 <kexec+0x264>
    80006ca8:	e9040613          	addi	x12,x8,-368
    80006cac:	00090593          	addi	x11,x18,0
    80006cb0:	000b0513          	addi	x10,x22,0
    80006cb4:	ce8fb0ef          	jal	x1,8000219c <copyout>
    80006cb8:	ee0546e3          	blt	x10,x0,80006ba4 <kexec+0x264>
    80006cbc:	058ab783          	ld	x15,88(x21)
    80006cc0:	0727bc23          	sd	x18,120(x15)
    80006cc4:	df043783          	ld	x15,-528(x8)
    80006cc8:	0007c703          	lbu	x14,0(x15)
    80006ccc:	02070463          	beq	x14,x0,80006cf4 <kexec+0x3b4>
    80006cd0:	00178793          	addi	x15,x15,1
    80006cd4:	02f00693          	addi	x13,x0,47
    80006cd8:	0100006f          	jal	x0,80006ce8 <kexec+0x3a8>
    80006cdc:	00178793          	addi	x15,x15,1
    80006ce0:	fff7c703          	lbu	x14,-1(x15)
    80006ce4:	00070863          	beq	x14,x0,80006cf4 <kexec+0x3b4>
    80006ce8:	fed71ae3          	bne	x14,x13,80006cdc <kexec+0x39c>
    80006cec:	def43823          	sd	x15,-528(x8)
    80006cf0:	fedff06f          	jal	x0,80006cdc <kexec+0x39c>
    80006cf4:	01000613          	addi	x12,x0,16
    80006cf8:	df043583          	ld	x11,-528(x8)
    80006cfc:	158a8513          	addi	x10,x21,344
    80006d00:	f44fa0ef          	jal	x1,80001444 <safestrcpy>
    80006d04:	050ab503          	ld	x10,80(x21)
    80006d08:	056ab823          	sd	x22,80(x21)
    80006d0c:	054ab423          	sd	x20,72(x21)
    80006d10:	058ab783          	ld	x15,88(x21)
    80006d14:	e6843703          	ld	x14,-408(x8)
    80006d18:	00e7bc23          	sd	x14,24(x15)
    80006d1c:	058ab783          	ld	x15,88(x21)
    80006d20:	0327b823          	sd	x18,48(x15)
    80006d24:	000d0593          	addi	x11,x26,0
    80006d28:	b49fb0ef          	jal	x1,80002870 <proc_freepagetable>
    80006d2c:	0004851b          	addiw	x10,x9,0
    80006d30:	1f813983          	ld	x19,504(x2)
    80006d34:	1f013a03          	ld	x20,496(x2)
    80006d38:	1e813a83          	ld	x21,488(x2)
    80006d3c:	1e013b03          	ld	x22,480(x2)
    80006d40:	1d813b83          	ld	x23,472(x2)
    80006d44:	1d013c03          	ld	x24,464(x2)
    80006d48:	1c813c83          	ld	x25,456(x2)
    80006d4c:	1c013d03          	ld	x26,448(x2)
    80006d50:	c7dff06f          	jal	x0,800069cc <kexec+0x8c>
    80006d54:	1e013b03          	ld	x22,480(x2)
    80006d58:	c61ff06f          	jal	x0,800069b8 <kexec+0x78>
    80006d5c:	df243c23          	sd	x18,-520(x8)
    80006d60:	df843583          	ld	x11,-520(x8)
    80006d64:	000b0513          	addi	x10,x22,0
    80006d68:	b09fb0ef          	jal	x1,80002870 <proc_freepagetable>
    80006d6c:	1f813983          	ld	x19,504(x2)
    80006d70:	1e813a83          	ld	x21,488(x2)
    80006d74:	1e013b03          	ld	x22,480(x2)
    80006d78:	1d813b83          	ld	x23,472(x2)
    80006d7c:	1d013c03          	ld	x24,464(x2)
    80006d80:	1c813c83          	ld	x25,456(x2)
    80006d84:	1c013d03          	ld	x26,448(x2)
    80006d88:	1b813d83          	ld	x27,440(x2)
    80006d8c:	c2dff06f          	jal	x0,800069b8 <kexec+0x78>
    80006d90:	df243c23          	sd	x18,-520(x8)
    80006d94:	fcdff06f          	jal	x0,80006d60 <kexec+0x420>
    80006d98:	df243c23          	sd	x18,-520(x8)
    80006d9c:	fc5ff06f          	jal	x0,80006d60 <kexec+0x420>
    80006da0:	df243c23          	sd	x18,-520(x8)
    80006da4:	fbdff06f          	jal	x0,80006d60 <kexec+0x420>
    80006da8:	df243c23          	sd	x18,-520(x8)
    80006dac:	fb5ff06f          	jal	x0,80006d60 <kexec+0x420>
    80006db0:	000a0993          	addi	x19,x20,0
    80006db4:	df1ff06f          	jal	x0,80006ba4 <kexec+0x264>
    80006db8:	000a0993          	addi	x19,x20,0
    80006dbc:	de9ff06f          	jal	x0,80006ba4 <kexec+0x264>

0000000080006dc0 <argfd>:
    80006dc0:	fd010113          	addi	x2,x2,-48
    80006dc4:	02113423          	sd	x1,40(x2)
    80006dc8:	02813023          	sd	x8,32(x2)
    80006dcc:	00913c23          	sd	x9,24(x2)
    80006dd0:	01213823          	sd	x18,16(x2)
    80006dd4:	03010413          	addi	x8,x2,48
    80006dd8:	00058913          	addi	x18,x11,0 # ffffffffffffe000 <end+0xffffffff7fbf3450>
    80006ddc:	00060493          	addi	x9,x12,0 # 2000 <_binary_fs_img_size-0x1f2000>
    80006de0:	fdc40593          	addi	x11,x8,-36
    80006de4:	e55fc0ef          	jal	x1,80003c38 <argint>
    80006de8:	fdc42703          	lw	x14,-36(x8)
    80006dec:	00f00793          	addi	x15,x0,15
    80006df0:	04e7e663          	bltu	x15,x14,80006e3c <argfd+0x7c>
    80006df4:	82dfb0ef          	jal	x1,80002620 <myproc>
    80006df8:	fdc42703          	lw	x14,-36(x8)
    80006dfc:	00371793          	slli	x15,x14,0x3
    80006e00:	0d078793          	addi	x15,x15,208
    80006e04:	00f50533          	add	x10,x10,x15
    80006e08:	00053783          	ld	x15,0(x10)
    80006e0c:	02078c63          	beq	x15,x0,80006e44 <argfd+0x84>
    80006e10:	00090463          	beq	x18,x0,80006e18 <argfd+0x58>
    80006e14:	00e92023          	sw	x14,0(x18)
    80006e18:	00000513          	addi	x10,x0,0
    80006e1c:	00048463          	beq	x9,x0,80006e24 <argfd+0x64>
    80006e20:	00f4b023          	sd	x15,0(x9)
    80006e24:	02813083          	ld	x1,40(x2)
    80006e28:	02013403          	ld	x8,32(x2)
    80006e2c:	01813483          	ld	x9,24(x2)
    80006e30:	01013903          	ld	x18,16(x2)
    80006e34:	03010113          	addi	x2,x2,48
    80006e38:	00008067          	jalr	x0,0(x1)
    80006e3c:	fff00513          	addi	x10,x0,-1
    80006e40:	fe5ff06f          	jal	x0,80006e24 <argfd+0x64>
    80006e44:	fff00513          	addi	x10,x0,-1
    80006e48:	fddff06f          	jal	x0,80006e24 <argfd+0x64>

0000000080006e4c <fdalloc>:
    80006e4c:	fe010113          	addi	x2,x2,-32
    80006e50:	00113c23          	sd	x1,24(x2)
    80006e54:	00813823          	sd	x8,16(x2)
    80006e58:	00913423          	sd	x9,8(x2)
    80006e5c:	02010413          	addi	x8,x2,32
    80006e60:	00050493          	addi	x9,x10,0
    80006e64:	fbcfb0ef          	jal	x1,80002620 <myproc>
    80006e68:	00050613          	addi	x12,x10,0
    80006e6c:	0d050793          	addi	x15,x10,208
    80006e70:	00000513          	addi	x10,x0,0
    80006e74:	01000693          	addi	x13,x0,16
    80006e78:	0007b703          	ld	x14,0(x15)
    80006e7c:	02070463          	beq	x14,x0,80006ea4 <fdalloc+0x58>
    80006e80:	0015051b          	addiw	x10,x10,1
    80006e84:	00878793          	addi	x15,x15,8
    80006e88:	fed518e3          	bne	x10,x13,80006e78 <fdalloc+0x2c>
    80006e8c:	fff00513          	addi	x10,x0,-1
    80006e90:	01813083          	ld	x1,24(x2)
    80006e94:	01013403          	ld	x8,16(x2)
    80006e98:	00813483          	ld	x9,8(x2)
    80006e9c:	02010113          	addi	x2,x2,32
    80006ea0:	00008067          	jalr	x0,0(x1)
    80006ea4:	00351793          	slli	x15,x10,0x3
    80006ea8:	0d078793          	addi	x15,x15,208
    80006eac:	00f60633          	add	x12,x12,x15
    80006eb0:	00963023          	sd	x9,0(x12)
    80006eb4:	fddff06f          	jal	x0,80006e90 <fdalloc+0x44>

0000000080006eb8 <create>:
    80006eb8:	fb010113          	addi	x2,x2,-80
    80006ebc:	04113423          	sd	x1,72(x2)
    80006ec0:	04813023          	sd	x8,64(x2)
    80006ec4:	02913c23          	sd	x9,56(x2)
    80006ec8:	03213823          	sd	x18,48(x2)
    80006ecc:	03313423          	sd	x19,40(x2)
    80006ed0:	03413023          	sd	x20,32(x2)
    80006ed4:	01513c23          	sd	x21,24(x2)
    80006ed8:	01613823          	sd	x22,16(x2)
    80006edc:	05010413          	addi	x8,x2,80
    80006ee0:	00058913          	addi	x18,x11,0
    80006ee4:	00058a13          	addi	x20,x11,0
    80006ee8:	00060a93          	addi	x21,x12,0
    80006eec:	00068b13          	addi	x22,x13,0
    80006ef0:	fb040593          	addi	x11,x8,-80
    80006ef4:	83dfe0ef          	jal	x1,80005730 <nameiparent>
    80006ef8:	00050493          	addi	x9,x10,0
    80006efc:	16050863          	beq	x10,x0,8000706c <create+0x1b4>
    80006f00:	b69fd0ef          	jal	x1,80004a68 <ilock>
    80006f04:	00000613          	addi	x12,x0,0
    80006f08:	fb040593          	addi	x11,x8,-80
    80006f0c:	00048513          	addi	x10,x9,0
    80006f10:	c04fe0ef          	jal	x1,80005314 <dirlookup>
    80006f14:	00050993          	addi	x19,x10,0
    80006f18:	06050863          	beq	x10,x0,80006f88 <create+0xd0>
    80006f1c:	00048513          	addi	x10,x9,0
    80006f20:	e35fd0ef          	jal	x1,80004d54 <iunlockput>
    80006f24:	00098513          	addi	x10,x19,0
    80006f28:	b41fd0ef          	jal	x1,80004a68 <ilock>
    80006f2c:	00200793          	addi	x15,x0,2
    80006f30:	04f91463          	bne	x18,x15,80006f78 <create+0xc0>
    80006f34:	0449d783          	lhu	x15,68(x19)
    80006f38:	ffe7879b          	addiw	x15,x15,-2
    80006f3c:	03079793          	slli	x15,x15,0x30
    80006f40:	0307d793          	srli	x15,x15,0x30
    80006f44:	00100713          	addi	x14,x0,1
    80006f48:	02f76863          	bltu	x14,x15,80006f78 <create+0xc0>
    80006f4c:	00098513          	addi	x10,x19,0
    80006f50:	04813083          	ld	x1,72(x2)
    80006f54:	04013403          	ld	x8,64(x2)
    80006f58:	03813483          	ld	x9,56(x2)
    80006f5c:	03013903          	ld	x18,48(x2)
    80006f60:	02813983          	ld	x19,40(x2)
    80006f64:	02013a03          	ld	x20,32(x2)
    80006f68:	01813a83          	ld	x21,24(x2)
    80006f6c:	01013b03          	ld	x22,16(x2)
    80006f70:	05010113          	addi	x2,x2,80
    80006f74:	00008067          	jalr	x0,0(x1)
    80006f78:	00098513          	addi	x10,x19,0
    80006f7c:	dd9fd0ef          	jal	x1,80004d54 <iunlockput>
    80006f80:	00000993          	addi	x19,x0,0
    80006f84:	fc9ff06f          	jal	x0,80006f4c <create+0x94>
    80006f88:	00090593          	addi	x11,x18,0
    80006f8c:	0004a503          	lw	x10,0(x9)
    80006f90:	8c1fd0ef          	jal	x1,80004850 <ialloc>
    80006f94:	00050913          	addi	x18,x10,0
    80006f98:	04050663          	beq	x10,x0,80006fe4 <create+0x12c>
    80006f9c:	acdfd0ef          	jal	x1,80004a68 <ilock>
    80006fa0:	05591323          	sh	x21,70(x18)
    80006fa4:	05691423          	sh	x22,72(x18)
    80006fa8:	00100793          	addi	x15,x0,1
    80006fac:	04f91523          	sh	x15,74(x18)
    80006fb0:	00090513          	addi	x10,x18,0
    80006fb4:	9b1fd0ef          	jal	x1,80004964 <iupdate>
    80006fb8:	00100713          	addi	x14,x0,1
    80006fbc:	02ea0a63          	beq	x20,x14,80006ff0 <create+0x138>
    80006fc0:	00492603          	lw	x12,4(x18)
    80006fc4:	fb040593          	addi	x11,x8,-80
    80006fc8:	00048513          	addi	x10,x9,0
    80006fcc:	e30fe0ef          	jal	x1,800055fc <dirlink>
    80006fd0:	06054e63          	blt	x10,x0,8000704c <create+0x194>
    80006fd4:	00048513          	addi	x10,x9,0
    80006fd8:	d7dfd0ef          	jal	x1,80004d54 <iunlockput>
    80006fdc:	00090993          	addi	x19,x18,0
    80006fe0:	f6dff06f          	jal	x0,80006f4c <create+0x94>
    80006fe4:	00048513          	addi	x10,x9,0
    80006fe8:	d6dfd0ef          	jal	x1,80004d54 <iunlockput>
    80006fec:	f61ff06f          	jal	x0,80006f4c <create+0x94>
    80006ff0:	00492603          	lw	x12,4(x18)
    80006ff4:	00003597          	auipc	x11,0x3
    80006ff8:	80c58593          	addi	x11,x11,-2036 # 80009800 <etext+0x800>
    80006ffc:	00090513          	addi	x10,x18,0
    80007000:	dfcfe0ef          	jal	x1,800055fc <dirlink>
    80007004:	04054463          	blt	x10,x0,8000704c <create+0x194>
    80007008:	0044a603          	lw	x12,4(x9)
    8000700c:	00002597          	auipc	x11,0x2
    80007010:	7fc58593          	addi	x11,x11,2044 # 80009808 <etext+0x808>
    80007014:	00090513          	addi	x10,x18,0
    80007018:	de4fe0ef          	jal	x1,800055fc <dirlink>
    8000701c:	02054863          	blt	x10,x0,8000704c <create+0x194>
    80007020:	00492603          	lw	x12,4(x18)
    80007024:	fb040593          	addi	x11,x8,-80
    80007028:	00048513          	addi	x10,x9,0
    8000702c:	dd0fe0ef          	jal	x1,800055fc <dirlink>
    80007030:	00054e63          	blt	x10,x0,8000704c <create+0x194>
    80007034:	04a4d783          	lhu	x15,74(x9)
    80007038:	0017879b          	addiw	x15,x15,1
    8000703c:	04f49523          	sh	x15,74(x9)
    80007040:	00048513          	addi	x10,x9,0
    80007044:	921fd0ef          	jal	x1,80004964 <iupdate>
    80007048:	f8dff06f          	jal	x0,80006fd4 <create+0x11c>
    8000704c:	04091523          	sh	x0,74(x18)
    80007050:	00090513          	addi	x10,x18,0
    80007054:	911fd0ef          	jal	x1,80004964 <iupdate>
    80007058:	00090513          	addi	x10,x18,0
    8000705c:	cf9fd0ef          	jal	x1,80004d54 <iunlockput>
    80007060:	00048513          	addi	x10,x9,0
    80007064:	cf1fd0ef          	jal	x1,80004d54 <iunlockput>
    80007068:	ee5ff06f          	jal	x0,80006f4c <create+0x94>
    8000706c:	00050993          	addi	x19,x10,0
    80007070:	eddff06f          	jal	x0,80006f4c <create+0x94>

0000000080007074 <sys_dup>:
    80007074:	fd010113          	addi	x2,x2,-48
    80007078:	02113423          	sd	x1,40(x2)
    8000707c:	02813023          	sd	x8,32(x2)
    80007080:	03010413          	addi	x8,x2,48
    80007084:	fd840613          	addi	x12,x8,-40
    80007088:	00000593          	addi	x11,x0,0
    8000708c:	00000513          	addi	x10,x0,0
    80007090:	d31ff0ef          	jal	x1,80006dc0 <argfd>
    80007094:	fff00793          	addi	x15,x0,-1
    80007098:	02054e63          	blt	x10,x0,800070d4 <sys_dup+0x60>
    8000709c:	00913c23          	sd	x9,24(x2)
    800070a0:	01213823          	sd	x18,16(x2)
    800070a4:	fd843783          	ld	x15,-40(x8)
    800070a8:	00078493          	addi	x9,x15,0
    800070ac:	00078513          	addi	x10,x15,0
    800070b0:	d9dff0ef          	jal	x1,80006e4c <fdalloc>
    800070b4:	00050913          	addi	x18,x10,0
    800070b8:	fff00793          	addi	x15,x0,-1
    800070bc:	02054663          	blt	x10,x0,800070e8 <sys_dup+0x74>
    800070c0:	00048513          	addi	x10,x9,0
    800070c4:	e75fe0ef          	jal	x1,80005f38 <filedup>
    800070c8:	00090793          	addi	x15,x18,0
    800070cc:	01813483          	ld	x9,24(x2)
    800070d0:	01013903          	ld	x18,16(x2)
    800070d4:	00078513          	addi	x10,x15,0
    800070d8:	02813083          	ld	x1,40(x2)
    800070dc:	02013403          	ld	x8,32(x2)
    800070e0:	03010113          	addi	x2,x2,48
    800070e4:	00008067          	jalr	x0,0(x1)
    800070e8:	01813483          	ld	x9,24(x2)
    800070ec:	01013903          	ld	x18,16(x2)
    800070f0:	fe5ff06f          	jal	x0,800070d4 <sys_dup+0x60>

00000000800070f4 <sys_read>:
    800070f4:	fd010113          	addi	x2,x2,-48
    800070f8:	02113423          	sd	x1,40(x2)
    800070fc:	02813023          	sd	x8,32(x2)
    80007100:	03010413          	addi	x8,x2,48
    80007104:	fd840593          	addi	x11,x8,-40
    80007108:	00100513          	addi	x10,x0,1
    8000710c:	b61fc0ef          	jal	x1,80003c6c <argaddr>
    80007110:	fe440593          	addi	x11,x8,-28
    80007114:	00200513          	addi	x10,x0,2
    80007118:	b21fc0ef          	jal	x1,80003c38 <argint>
    8000711c:	fe840613          	addi	x12,x8,-24
    80007120:	00000593          	addi	x11,x0,0
    80007124:	00000513          	addi	x10,x0,0
    80007128:	c99ff0ef          	jal	x1,80006dc0 <argfd>
    8000712c:	00050793          	addi	x15,x10,0
    80007130:	fff00513          	addi	x10,x0,-1
    80007134:	0007ca63          	blt	x15,x0,80007148 <sys_read+0x54>
    80007138:	fe442603          	lw	x12,-28(x8)
    8000713c:	fd843583          	ld	x11,-40(x8)
    80007140:	fe843503          	ld	x10,-24(x8)
    80007144:	81cff0ef          	jal	x1,80006160 <fileread>
    80007148:	02813083          	ld	x1,40(x2)
    8000714c:	02013403          	ld	x8,32(x2)
    80007150:	03010113          	addi	x2,x2,48
    80007154:	00008067          	jalr	x0,0(x1)

0000000080007158 <sys_write>:
    80007158:	fd010113          	addi	x2,x2,-48
    8000715c:	02113423          	sd	x1,40(x2)
    80007160:	02813023          	sd	x8,32(x2)
    80007164:	03010413          	addi	x8,x2,48
    80007168:	fd840593          	addi	x11,x8,-40
    8000716c:	00100513          	addi	x10,x0,1
    80007170:	afdfc0ef          	jal	x1,80003c6c <argaddr>
    80007174:	fe440593          	addi	x11,x8,-28
    80007178:	00200513          	addi	x10,x0,2
    8000717c:	abdfc0ef          	jal	x1,80003c38 <argint>
    80007180:	fe840613          	addi	x12,x8,-24
    80007184:	00000593          	addi	x11,x0,0
    80007188:	00000513          	addi	x10,x0,0
    8000718c:	c35ff0ef          	jal	x1,80006dc0 <argfd>
    80007190:	00050793          	addi	x15,x10,0
    80007194:	fff00513          	addi	x10,x0,-1
    80007198:	0007ca63          	blt	x15,x0,800071ac <sys_write+0x54>
    8000719c:	fe442603          	lw	x12,-28(x8)
    800071a0:	fd843583          	ld	x11,-40(x8)
    800071a4:	fe843503          	ld	x10,-24(x8)
    800071a8:	8fcff0ef          	jal	x1,800062a4 <filewrite>
    800071ac:	02813083          	ld	x1,40(x2)
    800071b0:	02013403          	ld	x8,32(x2)
    800071b4:	03010113          	addi	x2,x2,48
    800071b8:	00008067          	jalr	x0,0(x1)

00000000800071bc <sys_close>:
    800071bc:	fe010113          	addi	x2,x2,-32
    800071c0:	00113c23          	sd	x1,24(x2)
    800071c4:	00813823          	sd	x8,16(x2)
    800071c8:	02010413          	addi	x8,x2,32
    800071cc:	fe040613          	addi	x12,x8,-32
    800071d0:	fec40593          	addi	x11,x8,-20
    800071d4:	00000513          	addi	x10,x0,0
    800071d8:	be9ff0ef          	jal	x1,80006dc0 <argfd>
    800071dc:	fff00793          	addi	x15,x0,-1
    800071e0:	02054463          	blt	x10,x0,80007208 <sys_close+0x4c>
    800071e4:	c3cfb0ef          	jal	x1,80002620 <myproc>
    800071e8:	fec42783          	lw	x15,-20(x8)
    800071ec:	00379793          	slli	x15,x15,0x3
    800071f0:	0d078793          	addi	x15,x15,208
    800071f4:	00f50533          	add	x10,x10,x15
    800071f8:	00053023          	sd	x0,0(x10)
    800071fc:	fe043503          	ld	x10,-32(x8)
    80007200:	d9dfe0ef          	jal	x1,80005f9c <fileclose>
    80007204:	00000793          	addi	x15,x0,0
    80007208:	00078513          	addi	x10,x15,0
    8000720c:	01813083          	ld	x1,24(x2)
    80007210:	01013403          	ld	x8,16(x2)
    80007214:	02010113          	addi	x2,x2,32
    80007218:	00008067          	jalr	x0,0(x1)

000000008000721c <sys_fstat>:
    8000721c:	fe010113          	addi	x2,x2,-32
    80007220:	00113c23          	sd	x1,24(x2)
    80007224:	00813823          	sd	x8,16(x2)
    80007228:	02010413          	addi	x8,x2,32
    8000722c:	fe040593          	addi	x11,x8,-32
    80007230:	00100513          	addi	x10,x0,1
    80007234:	a39fc0ef          	jal	x1,80003c6c <argaddr>
    80007238:	fe840613          	addi	x12,x8,-24
    8000723c:	00000593          	addi	x11,x0,0
    80007240:	00000513          	addi	x10,x0,0
    80007244:	b7dff0ef          	jal	x1,80006dc0 <argfd>
    80007248:	00050793          	addi	x15,x10,0
    8000724c:	fff00513          	addi	x10,x0,-1
    80007250:	0007c863          	blt	x15,x0,80007260 <sys_fstat+0x44>
    80007254:	fe043583          	ld	x11,-32(x8)
    80007258:	fe843503          	ld	x10,-24(x8)
    8000725c:	e65fe0ef          	jal	x1,800060c0 <filestat>
    80007260:	01813083          	ld	x1,24(x2)
    80007264:	01013403          	ld	x8,16(x2)
    80007268:	02010113          	addi	x2,x2,32
    8000726c:	00008067          	jalr	x0,0(x1)

0000000080007270 <sys_link>:
    80007270:	ed010113          	addi	x2,x2,-304
    80007274:	12113423          	sd	x1,296(x2)
    80007278:	12813023          	sd	x8,288(x2)
    8000727c:	13010413          	addi	x8,x2,304
    80007280:	08000613          	addi	x12,x0,128
    80007284:	ed040593          	addi	x11,x8,-304
    80007288:	00000513          	addi	x10,x0,0
    8000728c:	a15fc0ef          	jal	x1,80003ca0 <argstr>
    80007290:	fff00793          	addi	x15,x0,-1
    80007294:	12054263          	blt	x10,x0,800073b8 <sys_link+0x148>
    80007298:	08000613          	addi	x12,x0,128
    8000729c:	f5040593          	addi	x11,x8,-176
    800072a0:	00100513          	addi	x10,x0,1
    800072a4:	9fdfc0ef          	jal	x1,80003ca0 <argstr>
    800072a8:	fff00793          	addi	x15,x0,-1
    800072ac:	10054663          	blt	x10,x0,800073b8 <sys_link+0x148>
    800072b0:	10913c23          	sd	x9,280(x2)
    800072b4:	f0cfe0ef          	jal	x1,800059c0 <begin_op>
    800072b8:	ed040513          	addi	x10,x8,-304
    800072bc:	c48fe0ef          	jal	x1,80005704 <namei>
    800072c0:	00050493          	addi	x9,x10,0
    800072c4:	08050863          	beq	x10,x0,80007354 <sys_link+0xe4>
    800072c8:	fa0fd0ef          	jal	x1,80004a68 <ilock>
    800072cc:	04449703          	lh	x14,68(x9)
    800072d0:	00100793          	addi	x15,x0,1
    800072d4:	08f70863          	beq	x14,x15,80007364 <sys_link+0xf4>
    800072d8:	11213823          	sd	x18,272(x2)
    800072dc:	04a4d783          	lhu	x15,74(x9)
    800072e0:	0017879b          	addiw	x15,x15,1
    800072e4:	04f49523          	sh	x15,74(x9)
    800072e8:	00048513          	addi	x10,x9,0
    800072ec:	e78fd0ef          	jal	x1,80004964 <iupdate>
    800072f0:	00048513          	addi	x10,x9,0
    800072f4:	869fd0ef          	jal	x1,80004b5c <iunlock>
    800072f8:	fd040593          	addi	x11,x8,-48
    800072fc:	f5040513          	addi	x10,x8,-176
    80007300:	c30fe0ef          	jal	x1,80005730 <nameiparent>
    80007304:	00050913          	addi	x18,x10,0
    80007308:	06050e63          	beq	x10,x0,80007384 <sys_link+0x114>
    8000730c:	f5cfd0ef          	jal	x1,80004a68 <ilock>
    80007310:	00092703          	lw	x14,0(x18)
    80007314:	0004a783          	lw	x15,0(x9)
    80007318:	06f71263          	bne	x14,x15,8000737c <sys_link+0x10c>
    8000731c:	0044a603          	lw	x12,4(x9)
    80007320:	fd040593          	addi	x11,x8,-48
    80007324:	00090513          	addi	x10,x18,0
    80007328:	ad4fe0ef          	jal	x1,800055fc <dirlink>
    8000732c:	04054863          	blt	x10,x0,8000737c <sys_link+0x10c>
    80007330:	00090513          	addi	x10,x18,0
    80007334:	a21fd0ef          	jal	x1,80004d54 <iunlockput>
    80007338:	00048513          	addi	x10,x9,0
    8000733c:	959fd0ef          	jal	x1,80004c94 <iput>
    80007340:	f24fe0ef          	jal	x1,80005a64 <end_op>
    80007344:	00000793          	addi	x15,x0,0
    80007348:	11813483          	ld	x9,280(x2)
    8000734c:	11013903          	ld	x18,272(x2)
    80007350:	0680006f          	jal	x0,800073b8 <sys_link+0x148>
    80007354:	f10fe0ef          	jal	x1,80005a64 <end_op>
    80007358:	fff00793          	addi	x15,x0,-1
    8000735c:	11813483          	ld	x9,280(x2)
    80007360:	0580006f          	jal	x0,800073b8 <sys_link+0x148>
    80007364:	00048513          	addi	x10,x9,0
    80007368:	9edfd0ef          	jal	x1,80004d54 <iunlockput>
    8000736c:	ef8fe0ef          	jal	x1,80005a64 <end_op>
    80007370:	fff00793          	addi	x15,x0,-1
    80007374:	11813483          	ld	x9,280(x2)
    80007378:	0400006f          	jal	x0,800073b8 <sys_link+0x148>
    8000737c:	00090513          	addi	x10,x18,0
    80007380:	9d5fd0ef          	jal	x1,80004d54 <iunlockput>
    80007384:	00048513          	addi	x10,x9,0
    80007388:	ee0fd0ef          	jal	x1,80004a68 <ilock>
    8000738c:	04a4d783          	lhu	x15,74(x9)
    80007390:	fff7879b          	addiw	x15,x15,-1
    80007394:	04f49523          	sh	x15,74(x9)
    80007398:	00048513          	addi	x10,x9,0
    8000739c:	dc8fd0ef          	jal	x1,80004964 <iupdate>
    800073a0:	00048513          	addi	x10,x9,0
    800073a4:	9b1fd0ef          	jal	x1,80004d54 <iunlockput>
    800073a8:	ebcfe0ef          	jal	x1,80005a64 <end_op>
    800073ac:	fff00793          	addi	x15,x0,-1
    800073b0:	11813483          	ld	x9,280(x2)
    800073b4:	11013903          	ld	x18,272(x2)
    800073b8:	00078513          	addi	x10,x15,0
    800073bc:	12813083          	ld	x1,296(x2)
    800073c0:	12013403          	ld	x8,288(x2)
    800073c4:	13010113          	addi	x2,x2,304
    800073c8:	00008067          	jalr	x0,0(x1)

00000000800073cc <sys_unlink>:
    800073cc:	f1010113          	addi	x2,x2,-240
    800073d0:	0e113423          	sd	x1,232(x2)
    800073d4:	0e813023          	sd	x8,224(x2)
    800073d8:	0f010413          	addi	x8,x2,240
    800073dc:	08000613          	addi	x12,x0,128
    800073e0:	f3040593          	addi	x11,x8,-208
    800073e4:	00000513          	addi	x10,x0,0
    800073e8:	8b9fc0ef          	jal	x1,80003ca0 <argstr>
    800073ec:	1a054e63          	blt	x10,x0,800075a8 <sys_unlink+0x1dc>
    800073f0:	0c913c23          	sd	x9,216(x2)
    800073f4:	dccfe0ef          	jal	x1,800059c0 <begin_op>
    800073f8:	fb040593          	addi	x11,x8,-80
    800073fc:	f3040513          	addi	x10,x8,-208
    80007400:	b30fe0ef          	jal	x1,80005730 <nameiparent>
    80007404:	00050493          	addi	x9,x10,0
    80007408:	0e050263          	beq	x10,x0,800074ec <sys_unlink+0x120>
    8000740c:	e5cfd0ef          	jal	x1,80004a68 <ilock>
    80007410:	00002597          	auipc	x11,0x2
    80007414:	3f058593          	addi	x11,x11,1008 # 80009800 <etext+0x800>
    80007418:	fb040513          	addi	x10,x8,-80
    8000741c:	ed1fd0ef          	jal	x1,800052ec <namecmp>
    80007420:	16050263          	beq	x10,x0,80007584 <sys_unlink+0x1b8>
    80007424:	00002597          	auipc	x11,0x2
    80007428:	3e458593          	addi	x11,x11,996 # 80009808 <etext+0x808>
    8000742c:	fb040513          	addi	x10,x8,-80
    80007430:	ebdfd0ef          	jal	x1,800052ec <namecmp>
    80007434:	14050863          	beq	x10,x0,80007584 <sys_unlink+0x1b8>
    80007438:	0d213823          	sd	x18,208(x2)
    8000743c:	f2c40613          	addi	x12,x8,-212
    80007440:	fb040593          	addi	x11,x8,-80
    80007444:	00048513          	addi	x10,x9,0
    80007448:	ecdfd0ef          	jal	x1,80005314 <dirlookup>
    8000744c:	00050913          	addi	x18,x10,0
    80007450:	12050863          	beq	x10,x0,80007580 <sys_unlink+0x1b4>
    80007454:	0d313423          	sd	x19,200(x2)
    80007458:	e10fd0ef          	jal	x1,80004a68 <ilock>
    8000745c:	04a91783          	lh	x15,74(x18)
    80007460:	08f05e63          	bge	x0,x15,800074fc <sys_unlink+0x130>
    80007464:	04491703          	lh	x14,68(x18)
    80007468:	00100793          	addi	x15,x0,1
    8000746c:	08f70e63          	beq	x14,x15,80007508 <sys_unlink+0x13c>
    80007470:	fc040993          	addi	x19,x8,-64
    80007474:	01000613          	addi	x12,x0,16
    80007478:	00000593          	addi	x11,x0,0
    8000747c:	00098513          	addi	x10,x19,0
    80007480:	dadf90ef          	jal	x1,8000122c <memset>
    80007484:	01000713          	addi	x14,x0,16
    80007488:	f2c42683          	lw	x13,-212(x8)
    8000748c:	00098613          	addi	x12,x19,0
    80007490:	00000593          	addi	x11,x0,0
    80007494:	00048513          	addi	x10,x9,0
    80007498:	ccdfd0ef          	jal	x1,80005164 <writei>
    8000749c:	01000793          	addi	x15,x0,16
    800074a0:	0af51e63          	bne	x10,x15,8000755c <sys_unlink+0x190>
    800074a4:	04491703          	lh	x14,68(x18)
    800074a8:	00100793          	addi	x15,x0,1
    800074ac:	0af70e63          	beq	x14,x15,80007568 <sys_unlink+0x19c>
    800074b0:	00048513          	addi	x10,x9,0
    800074b4:	8a1fd0ef          	jal	x1,80004d54 <iunlockput>
    800074b8:	04a95783          	lhu	x15,74(x18)
    800074bc:	fff7879b          	addiw	x15,x15,-1
    800074c0:	04f91523          	sh	x15,74(x18)
    800074c4:	00090513          	addi	x10,x18,0
    800074c8:	c9cfd0ef          	jal	x1,80004964 <iupdate>
    800074cc:	00090513          	addi	x10,x18,0
    800074d0:	885fd0ef          	jal	x1,80004d54 <iunlockput>
    800074d4:	d90fe0ef          	jal	x1,80005a64 <end_op>
    800074d8:	00000513          	addi	x10,x0,0
    800074dc:	0d813483          	ld	x9,216(x2)
    800074e0:	0d013903          	ld	x18,208(x2)
    800074e4:	0c813983          	ld	x19,200(x2)
    800074e8:	0b00006f          	jal	x0,80007598 <sys_unlink+0x1cc>
    800074ec:	d78fe0ef          	jal	x1,80005a64 <end_op>
    800074f0:	fff00513          	addi	x10,x0,-1
    800074f4:	0d813483          	ld	x9,216(x2)
    800074f8:	0a00006f          	jal	x0,80007598 <sys_unlink+0x1cc>
    800074fc:	00002517          	auipc	x10,0x2
    80007500:	31450513          	addi	x10,x10,788 # 80009810 <etext+0x810>
    80007504:	de8f90ef          	jal	x1,80000aec <panic>
    80007508:	04c92703          	lw	x14,76(x18)
    8000750c:	02000793          	addi	x15,x0,32
    80007510:	f6e7f0e3          	bgeu	x15,x14,80007470 <sys_unlink+0xa4>
    80007514:	00078993          	addi	x19,x15,0
    80007518:	01000713          	addi	x14,x0,16
    8000751c:	00098693          	addi	x13,x19,0
    80007520:	f1840613          	addi	x12,x8,-232
    80007524:	00000593          	addi	x11,x0,0
    80007528:	00090513          	addi	x10,x18,0
    8000752c:	ab5fd0ef          	jal	x1,80004fe0 <readi>
    80007530:	01000793          	addi	x15,x0,16
    80007534:	00f51e63          	bne	x10,x15,80007550 <sys_unlink+0x184>
    80007538:	f1845783          	lhu	x15,-232(x8)
    8000753c:	06079a63          	bne	x15,x0,800075b0 <sys_unlink+0x1e4>
    80007540:	0109899b          	addiw	x19,x19,16
    80007544:	04c92783          	lw	x15,76(x18)
    80007548:	fcf9e8e3          	bltu	x19,x15,80007518 <sys_unlink+0x14c>
    8000754c:	f25ff06f          	jal	x0,80007470 <sys_unlink+0xa4>
    80007550:	00002517          	auipc	x10,0x2
    80007554:	2d850513          	addi	x10,x10,728 # 80009828 <etext+0x828>
    80007558:	d94f90ef          	jal	x1,80000aec <panic>
    8000755c:	00002517          	auipc	x10,0x2
    80007560:	2e450513          	addi	x10,x10,740 # 80009840 <etext+0x840>
    80007564:	d88f90ef          	jal	x1,80000aec <panic>
    80007568:	04a4d783          	lhu	x15,74(x9)
    8000756c:	fff7879b          	addiw	x15,x15,-1
    80007570:	04f49523          	sh	x15,74(x9)
    80007574:	00048513          	addi	x10,x9,0
    80007578:	becfd0ef          	jal	x1,80004964 <iupdate>
    8000757c:	f35ff06f          	jal	x0,800074b0 <sys_unlink+0xe4>
    80007580:	0d013903          	ld	x18,208(x2)
    80007584:	00048513          	addi	x10,x9,0
    80007588:	fccfd0ef          	jal	x1,80004d54 <iunlockput>
    8000758c:	cd8fe0ef          	jal	x1,80005a64 <end_op>
    80007590:	fff00513          	addi	x10,x0,-1
    80007594:	0d813483          	ld	x9,216(x2)
    80007598:	0e813083          	ld	x1,232(x2)
    8000759c:	0e013403          	ld	x8,224(x2)
    800075a0:	0f010113          	addi	x2,x2,240
    800075a4:	00008067          	jalr	x0,0(x1)
    800075a8:	fff00513          	addi	x10,x0,-1
    800075ac:	fedff06f          	jal	x0,80007598 <sys_unlink+0x1cc>
    800075b0:	00090513          	addi	x10,x18,0
    800075b4:	fa0fd0ef          	jal	x1,80004d54 <iunlockput>
    800075b8:	0d013903          	ld	x18,208(x2)
    800075bc:	0c813983          	ld	x19,200(x2)
    800075c0:	fc5ff06f          	jal	x0,80007584 <sys_unlink+0x1b8>

00000000800075c4 <sys_open>:
    800075c4:	f4010113          	addi	x2,x2,-192
    800075c8:	0a113c23          	sd	x1,184(x2)
    800075cc:	0a813823          	sd	x8,176(x2)
    800075d0:	0c010413          	addi	x8,x2,192
    800075d4:	f4c40593          	addi	x11,x8,-180
    800075d8:	00100513          	addi	x10,x0,1
    800075dc:	e5cfc0ef          	jal	x1,80003c38 <argint>
    800075e0:	08000613          	addi	x12,x0,128
    800075e4:	f5040593          	addi	x11,x8,-176
    800075e8:	00000513          	addi	x10,x0,0
    800075ec:	eb4fc0ef          	jal	x1,80003ca0 <argstr>
    800075f0:	00050793          	addi	x15,x10,0
    800075f4:	fff00513          	addi	x10,x0,-1
    800075f8:	0c07ca63          	blt	x15,x0,800076cc <sys_open+0x108>
    800075fc:	0a913423          	sd	x9,168(x2)
    80007600:	bc0fe0ef          	jal	x1,800059c0 <begin_op>
    80007604:	f4c42783          	lw	x15,-180(x8)
    80007608:	2007f793          	andi	x15,x15,512
    8000760c:	0e078063          	beq	x15,x0,800076ec <sys_open+0x128>
    80007610:	00000693          	addi	x13,x0,0
    80007614:	00000613          	addi	x12,x0,0
    80007618:	00200593          	addi	x11,x0,2
    8000761c:	f5040513          	addi	x10,x8,-176
    80007620:	899ff0ef          	jal	x1,80006eb8 <create>
    80007624:	00050493          	addi	x9,x10,0
    80007628:	0a050a63          	beq	x10,x0,800076dc <sys_open+0x118>
    8000762c:	04449703          	lh	x14,68(x9)
    80007630:	00300793          	addi	x15,x0,3
    80007634:	00f71863          	bne	x14,x15,80007644 <sys_open+0x80>
    80007638:	0464d703          	lhu	x14,70(x9)
    8000763c:	00900793          	addi	x15,x0,9
    80007640:	0ee7ee63          	bltu	x15,x14,8000773c <sys_open+0x178>
    80007644:	0b213023          	sd	x18,160(x2)
    80007648:	871fe0ef          	jal	x1,80005eb8 <filealloc>
    8000764c:	00050913          	addi	x18,x10,0
    80007650:	10050863          	beq	x10,x0,80007760 <sys_open+0x19c>
    80007654:	09313c23          	sd	x19,152(x2)
    80007658:	ff4ff0ef          	jal	x1,80006e4c <fdalloc>
    8000765c:	00050993          	addi	x19,x10,0
    80007660:	0e054a63          	blt	x10,x0,80007754 <sys_open+0x190>
    80007664:	04449703          	lh	x14,68(x9)
    80007668:	00300793          	addi	x15,x0,3
    8000766c:	10f70863          	beq	x14,x15,8000777c <sys_open+0x1b8>
    80007670:	00200793          	addi	x15,x0,2
    80007674:	00f92023          	sw	x15,0(x18)
    80007678:	02092023          	sw	x0,32(x18)
    8000767c:	00993c23          	sd	x9,24(x18)
    80007680:	f4c42783          	lw	x15,-180(x8)
    80007684:	0017f713          	andi	x14,x15,1
    80007688:	00174713          	xori	x14,x14,1
    8000768c:	00e90423          	sb	x14,8(x18)
    80007690:	0037f713          	andi	x14,x15,3
    80007694:	00e03733          	sltu	x14,x0,x14
    80007698:	00e904a3          	sb	x14,9(x18)
    8000769c:	4007f793          	andi	x15,x15,1024
    800076a0:	00078863          	beq	x15,x0,800076b0 <sys_open+0xec>
    800076a4:	04449703          	lh	x14,68(x9)
    800076a8:	00200793          	addi	x15,x0,2
    800076ac:	0ef70063          	beq	x14,x15,8000778c <sys_open+0x1c8>
    800076b0:	00048513          	addi	x10,x9,0
    800076b4:	ca8fd0ef          	jal	x1,80004b5c <iunlock>
    800076b8:	bacfe0ef          	jal	x1,80005a64 <end_op>
    800076bc:	00098513          	addi	x10,x19,0
    800076c0:	0a813483          	ld	x9,168(x2)
    800076c4:	0a013903          	ld	x18,160(x2)
    800076c8:	09813983          	ld	x19,152(x2)
    800076cc:	0b813083          	ld	x1,184(x2)
    800076d0:	0b013403          	ld	x8,176(x2)
    800076d4:	0c010113          	addi	x2,x2,192
    800076d8:	00008067          	jalr	x0,0(x1)
    800076dc:	b88fe0ef          	jal	x1,80005a64 <end_op>
    800076e0:	fff00513          	addi	x10,x0,-1
    800076e4:	0a813483          	ld	x9,168(x2)
    800076e8:	fe5ff06f          	jal	x0,800076cc <sys_open+0x108>
    800076ec:	f5040513          	addi	x10,x8,-176
    800076f0:	814fe0ef          	jal	x1,80005704 <namei>
    800076f4:	00050493          	addi	x9,x10,0
    800076f8:	02050a63          	beq	x10,x0,8000772c <sys_open+0x168>
    800076fc:	b6cfd0ef          	jal	x1,80004a68 <ilock>
    80007700:	04449703          	lh	x14,68(x9)
    80007704:	00100793          	addi	x15,x0,1
    80007708:	f2f712e3          	bne	x14,x15,8000762c <sys_open+0x68>
    8000770c:	f4c42783          	lw	x15,-180(x8)
    80007710:	f2078ae3          	beq	x15,x0,80007644 <sys_open+0x80>
    80007714:	00048513          	addi	x10,x9,0
    80007718:	e3cfd0ef          	jal	x1,80004d54 <iunlockput>
    8000771c:	b48fe0ef          	jal	x1,80005a64 <end_op>
    80007720:	fff00513          	addi	x10,x0,-1
    80007724:	0a813483          	ld	x9,168(x2)
    80007728:	fa5ff06f          	jal	x0,800076cc <sys_open+0x108>
    8000772c:	b38fe0ef          	jal	x1,80005a64 <end_op>
    80007730:	fff00513          	addi	x10,x0,-1
    80007734:	0a813483          	ld	x9,168(x2)
    80007738:	f95ff06f          	jal	x0,800076cc <sys_open+0x108>
    8000773c:	00048513          	addi	x10,x9,0
    80007740:	e14fd0ef          	jal	x1,80004d54 <iunlockput>
    80007744:	b20fe0ef          	jal	x1,80005a64 <end_op>
    80007748:	fff00513          	addi	x10,x0,-1
    8000774c:	0a813483          	ld	x9,168(x2)
    80007750:	f7dff06f          	jal	x0,800076cc <sys_open+0x108>
    80007754:	00090513          	addi	x10,x18,0
    80007758:	845fe0ef          	jal	x1,80005f9c <fileclose>
    8000775c:	09813983          	ld	x19,152(x2)
    80007760:	00048513          	addi	x10,x9,0
    80007764:	df0fd0ef          	jal	x1,80004d54 <iunlockput>
    80007768:	afcfe0ef          	jal	x1,80005a64 <end_op>
    8000776c:	fff00513          	addi	x10,x0,-1
    80007770:	0a813483          	ld	x9,168(x2)
    80007774:	0a013903          	ld	x18,160(x2)
    80007778:	f55ff06f          	jal	x0,800076cc <sys_open+0x108>
    8000777c:	00e92023          	sw	x14,0(x18)
    80007780:	04649783          	lh	x15,70(x9)
    80007784:	02f91223          	sh	x15,36(x18)
    80007788:	ef5ff06f          	jal	x0,8000767c <sys_open+0xb8>
    8000778c:	00048513          	addi	x10,x9,0
    80007790:	c30fd0ef          	jal	x1,80004bc0 <itrunc>
    80007794:	f1dff06f          	jal	x0,800076b0 <sys_open+0xec>

0000000080007798 <sys_mkdir>:
    80007798:	f7010113          	addi	x2,x2,-144
    8000779c:	08113423          	sd	x1,136(x2)
    800077a0:	08813023          	sd	x8,128(x2)
    800077a4:	09010413          	addi	x8,x2,144
    800077a8:	a18fe0ef          	jal	x1,800059c0 <begin_op>
    800077ac:	08000613          	addi	x12,x0,128
    800077b0:	f7040593          	addi	x11,x8,-144
    800077b4:	00000513          	addi	x10,x0,0
    800077b8:	ce8fc0ef          	jal	x1,80003ca0 <argstr>
    800077bc:	02054c63          	blt	x10,x0,800077f4 <sys_mkdir+0x5c>
    800077c0:	00000693          	addi	x13,x0,0
    800077c4:	00000613          	addi	x12,x0,0
    800077c8:	00100593          	addi	x11,x0,1
    800077cc:	f7040513          	addi	x10,x8,-144
    800077d0:	ee8ff0ef          	jal	x1,80006eb8 <create>
    800077d4:	02050063          	beq	x10,x0,800077f4 <sys_mkdir+0x5c>
    800077d8:	d7cfd0ef          	jal	x1,80004d54 <iunlockput>
    800077dc:	a88fe0ef          	jal	x1,80005a64 <end_op>
    800077e0:	00000513          	addi	x10,x0,0
    800077e4:	08813083          	ld	x1,136(x2)
    800077e8:	08013403          	ld	x8,128(x2)
    800077ec:	09010113          	addi	x2,x2,144
    800077f0:	00008067          	jalr	x0,0(x1)
    800077f4:	a70fe0ef          	jal	x1,80005a64 <end_op>
    800077f8:	fff00513          	addi	x10,x0,-1
    800077fc:	fe9ff06f          	jal	x0,800077e4 <sys_mkdir+0x4c>

0000000080007800 <sys_mknod>:
    80007800:	f6010113          	addi	x2,x2,-160
    80007804:	08113c23          	sd	x1,152(x2)
    80007808:	08813823          	sd	x8,144(x2)
    8000780c:	0a010413          	addi	x8,x2,160
    80007810:	9b0fe0ef          	jal	x1,800059c0 <begin_op>
    80007814:	f6c40593          	addi	x11,x8,-148
    80007818:	00100513          	addi	x10,x0,1
    8000781c:	c1cfc0ef          	jal	x1,80003c38 <argint>
    80007820:	f6840593          	addi	x11,x8,-152
    80007824:	00200513          	addi	x10,x0,2
    80007828:	c10fc0ef          	jal	x1,80003c38 <argint>
    8000782c:	08000613          	addi	x12,x0,128
    80007830:	f7040593          	addi	x11,x8,-144
    80007834:	00000513          	addi	x10,x0,0
    80007838:	c68fc0ef          	jal	x1,80003ca0 <argstr>
    8000783c:	02054c63          	blt	x10,x0,80007874 <sys_mknod+0x74>
    80007840:	f6841683          	lh	x13,-152(x8)
    80007844:	f6c41603          	lh	x12,-148(x8)
    80007848:	00300593          	addi	x11,x0,3
    8000784c:	f7040513          	addi	x10,x8,-144
    80007850:	e68ff0ef          	jal	x1,80006eb8 <create>
    80007854:	02050063          	beq	x10,x0,80007874 <sys_mknod+0x74>
    80007858:	cfcfd0ef          	jal	x1,80004d54 <iunlockput>
    8000785c:	a08fe0ef          	jal	x1,80005a64 <end_op>
    80007860:	00000513          	addi	x10,x0,0
    80007864:	09813083          	ld	x1,152(x2)
    80007868:	09013403          	ld	x8,144(x2)
    8000786c:	0a010113          	addi	x2,x2,160
    80007870:	00008067          	jalr	x0,0(x1)
    80007874:	9f0fe0ef          	jal	x1,80005a64 <end_op>
    80007878:	fff00513          	addi	x10,x0,-1
    8000787c:	fe9ff06f          	jal	x0,80007864 <sys_mknod+0x64>

0000000080007880 <sys_chdir>:
    80007880:	f6010113          	addi	x2,x2,-160
    80007884:	08113c23          	sd	x1,152(x2)
    80007888:	08813823          	sd	x8,144(x2)
    8000788c:	09213023          	sd	x18,128(x2)
    80007890:	0a010413          	addi	x8,x2,160
    80007894:	d8dfa0ef          	jal	x1,80002620 <myproc>
    80007898:	00050913          	addi	x18,x10,0
    8000789c:	924fe0ef          	jal	x1,800059c0 <begin_op>
    800078a0:	08000613          	addi	x12,x0,128
    800078a4:	f6040593          	addi	x11,x8,-160
    800078a8:	00000513          	addi	x10,x0,0
    800078ac:	bf4fc0ef          	jal	x1,80003ca0 <argstr>
    800078b0:	06054063          	blt	x10,x0,80007910 <sys_chdir+0x90>
    800078b4:	08913423          	sd	x9,136(x2)
    800078b8:	f6040513          	addi	x10,x8,-160
    800078bc:	e49fd0ef          	jal	x1,80005704 <namei>
    800078c0:	00050493          	addi	x9,x10,0
    800078c4:	04050463          	beq	x10,x0,8000790c <sys_chdir+0x8c>
    800078c8:	9a0fd0ef          	jal	x1,80004a68 <ilock>
    800078cc:	04449703          	lh	x14,68(x9)
    800078d0:	00100793          	addi	x15,x0,1
    800078d4:	04f71463          	bne	x14,x15,8000791c <sys_chdir+0x9c>
    800078d8:	00048513          	addi	x10,x9,0
    800078dc:	a80fd0ef          	jal	x1,80004b5c <iunlock>
    800078e0:	15093503          	ld	x10,336(x18)
    800078e4:	bb0fd0ef          	jal	x1,80004c94 <iput>
    800078e8:	97cfe0ef          	jal	x1,80005a64 <end_op>
    800078ec:	14993823          	sd	x9,336(x18)
    800078f0:	00000513          	addi	x10,x0,0
    800078f4:	08813483          	ld	x9,136(x2)
    800078f8:	09813083          	ld	x1,152(x2)
    800078fc:	09013403          	ld	x8,144(x2)
    80007900:	08013903          	ld	x18,128(x2)
    80007904:	0a010113          	addi	x2,x2,160
    80007908:	00008067          	jalr	x0,0(x1)
    8000790c:	08813483          	ld	x9,136(x2)
    80007910:	954fe0ef          	jal	x1,80005a64 <end_op>
    80007914:	fff00513          	addi	x10,x0,-1
    80007918:	fe1ff06f          	jal	x0,800078f8 <sys_chdir+0x78>
    8000791c:	00048513          	addi	x10,x9,0
    80007920:	c34fd0ef          	jal	x1,80004d54 <iunlockput>
    80007924:	940fe0ef          	jal	x1,80005a64 <end_op>
    80007928:	fff00513          	addi	x10,x0,-1
    8000792c:	08813483          	ld	x9,136(x2)
    80007930:	fc9ff06f          	jal	x0,800078f8 <sys_chdir+0x78>

0000000080007934 <sys_exec>:
    80007934:	e2010113          	addi	x2,x2,-480
    80007938:	1c113c23          	sd	x1,472(x2)
    8000793c:	1c813823          	sd	x8,464(x2)
    80007940:	1e010413          	addi	x8,x2,480
    80007944:	e2840593          	addi	x11,x8,-472
    80007948:	00100513          	addi	x10,x0,1
    8000794c:	b20fc0ef          	jal	x1,80003c6c <argaddr>
    80007950:	08000613          	addi	x12,x0,128
    80007954:	f3040593          	addi	x11,x8,-208
    80007958:	00000513          	addi	x10,x0,0
    8000795c:	b44fc0ef          	jal	x1,80003ca0 <argstr>
    80007960:	00050793          	addi	x15,x10,0
    80007964:	fff00513          	addi	x10,x0,-1
    80007968:	1407c863          	blt	x15,x0,80007ab8 <sys_exec+0x184>
    8000796c:	1c913423          	sd	x9,456(x2)
    80007970:	1d213023          	sd	x18,448(x2)
    80007974:	1b313c23          	sd	x19,440(x2)
    80007978:	1b413823          	sd	x20,432(x2)
    8000797c:	1b513423          	sd	x21,424(x2)
    80007980:	1b613023          	sd	x22,416(x2)
    80007984:	19713c23          	sd	x23,408(x2)
    80007988:	e3040a13          	addi	x20,x8,-464
    8000798c:	10000613          	addi	x12,x0,256
    80007990:	00000593          	addi	x11,x0,0
    80007994:	000a0513          	addi	x10,x20,0
    80007998:	895f90ef          	jal	x1,8000122c <memset>
    8000799c:	000a0493          	addi	x9,x20,0
    800079a0:	000a0993          	addi	x19,x20,0
    800079a4:	00000913          	addi	x18,x0,0
    800079a8:	e2040a93          	addi	x21,x8,-480
    800079ac:	00001b37          	lui	x22,0x1
    800079b0:	02000b93          	addi	x23,x0,32
    800079b4:	00391513          	slli	x10,x18,0x3
    800079b8:	000a8593          	addi	x11,x21,0
    800079bc:	e2843783          	ld	x15,-472(x8)
    800079c0:	00f50533          	add	x10,x10,x15
    800079c4:	98cfc0ef          	jal	x1,80003b50 <fetchaddr>
    800079c8:	02054c63          	blt	x10,x0,80007a00 <sys_exec+0xcc>
    800079cc:	e2043783          	ld	x15,-480(x8)
    800079d0:	06078663          	beq	x15,x0,80007a3c <sys_exec+0x108>
    800079d4:	d5cf90ef          	jal	x1,80000f30 <kalloc>
    800079d8:	00050593          	addi	x11,x10,0
    800079dc:	00a9b023          	sd	x10,0(x19)
    800079e0:	02050063          	beq	x10,x0,80007a00 <sys_exec+0xcc>
    800079e4:	000b0613          	addi	x12,x22,0 # 1000 <_binary_fs_img_size-0x1f3000>
    800079e8:	e2043503          	ld	x10,-480(x8)
    800079ec:	9dcfc0ef          	jal	x1,80003bc8 <fetchstr>
    800079f0:	00054863          	blt	x10,x0,80007a00 <sys_exec+0xcc>
    800079f4:	00190913          	addi	x18,x18,1
    800079f8:	00898993          	addi	x19,x19,8
    800079fc:	fb791ce3          	bne	x18,x23,800079b4 <sys_exec+0x80>
    80007a00:	100a0a13          	addi	x20,x20,256
    80007a04:	0004b503          	ld	x10,0(x9)
    80007a08:	08050863          	beq	x10,x0,80007a98 <sys_exec+0x164>
    80007a0c:	b84f90ef          	jal	x1,80000d90 <kfree>
    80007a10:	00848493          	addi	x9,x9,8
    80007a14:	ff4498e3          	bne	x9,x20,80007a04 <sys_exec+0xd0>
    80007a18:	fff00513          	addi	x10,x0,-1
    80007a1c:	1c813483          	ld	x9,456(x2)
    80007a20:	1c013903          	ld	x18,448(x2)
    80007a24:	1b813983          	ld	x19,440(x2)
    80007a28:	1b013a03          	ld	x20,432(x2)
    80007a2c:	1a813a83          	ld	x21,424(x2)
    80007a30:	1a013b03          	ld	x22,416(x2)
    80007a34:	19813b83          	ld	x23,408(x2)
    80007a38:	0800006f          	jal	x0,80007ab8 <sys_exec+0x184>
    80007a3c:	0009079b          	addiw	x15,x18,0
    80007a40:	e3040593          	addi	x11,x8,-464
    80007a44:	00379793          	slli	x15,x15,0x3
    80007a48:	00b787b3          	add	x15,x15,x11
    80007a4c:	0007b023          	sd	x0,0(x15)
    80007a50:	f3040513          	addi	x10,x8,-208
    80007a54:	eedfe0ef          	jal	x1,80006940 <kexec>
    80007a58:	00050913          	addi	x18,x10,0
    80007a5c:	100a0a13          	addi	x20,x20,256
    80007a60:	0004b503          	ld	x10,0(x9)
    80007a64:	00050863          	beq	x10,x0,80007a74 <sys_exec+0x140>
    80007a68:	b28f90ef          	jal	x1,80000d90 <kfree>
    80007a6c:	00848493          	addi	x9,x9,8
    80007a70:	ff4498e3          	bne	x9,x20,80007a60 <sys_exec+0x12c>
    80007a74:	00090513          	addi	x10,x18,0
    80007a78:	1c813483          	ld	x9,456(x2)
    80007a7c:	1c013903          	ld	x18,448(x2)
    80007a80:	1b813983          	ld	x19,440(x2)
    80007a84:	1b013a03          	ld	x20,432(x2)
    80007a88:	1a813a83          	ld	x21,424(x2)
    80007a8c:	1a013b03          	ld	x22,416(x2)
    80007a90:	19813b83          	ld	x23,408(x2)
    80007a94:	0240006f          	jal	x0,80007ab8 <sys_exec+0x184>
    80007a98:	fff00513          	addi	x10,x0,-1
    80007a9c:	1c813483          	ld	x9,456(x2)
    80007aa0:	1c013903          	ld	x18,448(x2)
    80007aa4:	1b813983          	ld	x19,440(x2)
    80007aa8:	1b013a03          	ld	x20,432(x2)
    80007aac:	1a813a83          	ld	x21,424(x2)
    80007ab0:	1a013b03          	ld	x22,416(x2)
    80007ab4:	19813b83          	ld	x23,408(x2)
    80007ab8:	1d813083          	ld	x1,472(x2)
    80007abc:	1d013403          	ld	x8,464(x2)
    80007ac0:	1e010113          	addi	x2,x2,480
    80007ac4:	00008067          	jalr	x0,0(x1)

0000000080007ac8 <sys_pipe>:
    80007ac8:	fc010113          	addi	x2,x2,-64
    80007acc:	02113c23          	sd	x1,56(x2)
    80007ad0:	02813823          	sd	x8,48(x2)
    80007ad4:	02913423          	sd	x9,40(x2)
    80007ad8:	04010413          	addi	x8,x2,64
    80007adc:	b45fa0ef          	jal	x1,80002620 <myproc>
    80007ae0:	00050493          	addi	x9,x10,0
    80007ae4:	fd840593          	addi	x11,x8,-40
    80007ae8:	00000513          	addi	x10,x0,0
    80007aec:	980fc0ef          	jal	x1,80003c6c <argaddr>
    80007af0:	fc840593          	addi	x11,x8,-56
    80007af4:	fd040513          	addi	x10,x8,-48
    80007af8:	985fe0ef          	jal	x1,8000647c <pipealloc>
    80007afc:	fff00793          	addi	x15,x0,-1
    80007b00:	0c054663          	blt	x10,x0,80007bcc <sys_pipe+0x104>
    80007b04:	fcf42223          	sw	x15,-60(x8)
    80007b08:	fd043503          	ld	x10,-48(x8)
    80007b0c:	b40ff0ef          	jal	x1,80006e4c <fdalloc>
    80007b10:	fca42223          	sw	x10,-60(x8)
    80007b14:	0a054263          	blt	x10,x0,80007bb8 <sys_pipe+0xf0>
    80007b18:	fc843503          	ld	x10,-56(x8)
    80007b1c:	b30ff0ef          	jal	x1,80006e4c <fdalloc>
    80007b20:	fca42023          	sw	x10,-64(x8)
    80007b24:	06054e63          	blt	x10,x0,80007ba0 <sys_pipe+0xd8>
    80007b28:	00400693          	addi	x13,x0,4
    80007b2c:	fc440613          	addi	x12,x8,-60
    80007b30:	fd843583          	ld	x11,-40(x8)
    80007b34:	0504b503          	ld	x10,80(x9)
    80007b38:	e64fa0ef          	jal	x1,8000219c <copyout>
    80007b3c:	02054263          	blt	x10,x0,80007b60 <sys_pipe+0x98>
    80007b40:	00400693          	addi	x13,x0,4
    80007b44:	fc040613          	addi	x12,x8,-64
    80007b48:	fd843583          	ld	x11,-40(x8)
    80007b4c:	00d585b3          	add	x11,x11,x13
    80007b50:	0504b503          	ld	x10,80(x9)
    80007b54:	e48fa0ef          	jal	x1,8000219c <copyout>
    80007b58:	00000793          	addi	x15,x0,0
    80007b5c:	06055863          	bge	x10,x0,80007bcc <sys_pipe+0x104>
    80007b60:	fc442783          	lw	x15,-60(x8)
    80007b64:	00379793          	slli	x15,x15,0x3
    80007b68:	0d078793          	addi	x15,x15,208
    80007b6c:	00f487b3          	add	x15,x9,x15
    80007b70:	0007b023          	sd	x0,0(x15)
    80007b74:	fc042783          	lw	x15,-64(x8)
    80007b78:	00379793          	slli	x15,x15,0x3
    80007b7c:	0d078793          	addi	x15,x15,208
    80007b80:	00f487b3          	add	x15,x9,x15
    80007b84:	0007b023          	sd	x0,0(x15)
    80007b88:	fd043503          	ld	x10,-48(x8)
    80007b8c:	c10fe0ef          	jal	x1,80005f9c <fileclose>
    80007b90:	fc843503          	ld	x10,-56(x8)
    80007b94:	c08fe0ef          	jal	x1,80005f9c <fileclose>
    80007b98:	fff00793          	addi	x15,x0,-1
    80007b9c:	0300006f          	jal	x0,80007bcc <sys_pipe+0x104>
    80007ba0:	fc442783          	lw	x15,-60(x8)
    80007ba4:	0007ca63          	blt	x15,x0,80007bb8 <sys_pipe+0xf0>
    80007ba8:	00379793          	slli	x15,x15,0x3
    80007bac:	0d078793          	addi	x15,x15,208
    80007bb0:	00f487b3          	add	x15,x9,x15
    80007bb4:	0007b023          	sd	x0,0(x15)
    80007bb8:	fd043503          	ld	x10,-48(x8)
    80007bbc:	be0fe0ef          	jal	x1,80005f9c <fileclose>
    80007bc0:	fc843503          	ld	x10,-56(x8)
    80007bc4:	bd8fe0ef          	jal	x1,80005f9c <fileclose>
    80007bc8:	fff00793          	addi	x15,x0,-1
    80007bcc:	00078513          	addi	x10,x15,0
    80007bd0:	03813083          	ld	x1,56(x2)
    80007bd4:	03013403          	ld	x8,48(x2)
    80007bd8:	02813483          	ld	x9,40(x2)
    80007bdc:	04010113          	addi	x2,x2,64
    80007be0:	00008067          	jalr	x0,0(x1)
	...

0000000080007bf0 <kernelvec>:
    80007bf0:	f0010113          	addi	x2,x2,-256
    80007bf4:	00113023          	sd	x1,0(x2)
    80007bf8:	00313823          	sd	x3,16(x2)
    80007bfc:	00413c23          	sd	x4,24(x2)
    80007c00:	02513023          	sd	x5,32(x2)
    80007c04:	02613423          	sd	x6,40(x2)
    80007c08:	02713823          	sd	x7,48(x2)
    80007c0c:	04a13423          	sd	x10,72(x2)
    80007c10:	04b13823          	sd	x11,80(x2)
    80007c14:	04c13c23          	sd	x12,88(x2)
    80007c18:	06d13023          	sd	x13,96(x2)
    80007c1c:	06e13423          	sd	x14,104(x2)
    80007c20:	06f13823          	sd	x15,112(x2)
    80007c24:	07013c23          	sd	x16,120(x2)
    80007c28:	09113023          	sd	x17,128(x2)
    80007c2c:	0dc13c23          	sd	x28,216(x2)
    80007c30:	0fd13023          	sd	x29,224(x2)
    80007c34:	0fe13423          	sd	x30,232(x2)
    80007c38:	0ff13823          	sd	x31,240(x2)
    80007c3c:	db1fb0ef          	jal	x1,800039ec <kerneltrap>
    80007c40:	00013083          	ld	x1,0(x2)
    80007c44:	01013183          	ld	x3,16(x2)
    80007c48:	02013283          	ld	x5,32(x2)
    80007c4c:	02813303          	ld	x6,40(x2)
    80007c50:	03013383          	ld	x7,48(x2)
    80007c54:	04813503          	ld	x10,72(x2)
    80007c58:	05013583          	ld	x11,80(x2)
    80007c5c:	05813603          	ld	x12,88(x2)
    80007c60:	06013683          	ld	x13,96(x2)
    80007c64:	06813703          	ld	x14,104(x2)
    80007c68:	07013783          	ld	x15,112(x2)
    80007c6c:	07813803          	ld	x16,120(x2)
    80007c70:	08013883          	ld	x17,128(x2)
    80007c74:	0d813e03          	ld	x28,216(x2)
    80007c78:	0e013e83          	ld	x29,224(x2)
    80007c7c:	0e813f03          	ld	x30,232(x2)
    80007c80:	0f013f83          	ld	x31,240(x2)
    80007c84:	10010113          	addi	x2,x2,256
    80007c88:	10200073          	sret
    80007c8c:	00000013          	addi	x0,x0,0

0000000080007c90 <plicinit>:
    80007c90:	ff010113          	addi	x2,x2,-16
    80007c94:	00113423          	sd	x1,8(x2)
    80007c98:	00813023          	sd	x8,0(x2)
    80007c9c:	01010413          	addi	x8,x2,16
    80007ca0:	0c000737          	lui	x14,0xc000
    80007ca4:	00100793          	addi	x15,x0,1
    80007ca8:	02f72423          	sw	x15,40(x14) # c000028 <_binary_fs_img_size+0xbe0c028>
    80007cac:	00f72223          	sw	x15,4(x14)
    80007cb0:	00813083          	ld	x1,8(x2)
    80007cb4:	00013403          	ld	x8,0(x2)
    80007cb8:	01010113          	addi	x2,x2,16
    80007cbc:	00008067          	jalr	x0,0(x1)

0000000080007cc0 <plicinithart>:
    80007cc0:	ff010113          	addi	x2,x2,-16
    80007cc4:	00113423          	sd	x1,8(x2)
    80007cc8:	00813023          	sd	x8,0(x2)
    80007ccc:	01010413          	addi	x8,x2,16
    80007cd0:	8f1fa0ef          	jal	x1,800025c0 <cpuid>
    80007cd4:	0085171b          	slliw	x14,x10,0x8
    80007cd8:	0c0027b7          	lui	x15,0xc002
    80007cdc:	00e787b3          	add	x15,x15,x14
    80007ce0:	40200713          	addi	x14,x0,1026
    80007ce4:	08e7a023          	sw	x14,128(x15) # c002080 <_binary_fs_img_size+0xbe0e080>
    80007ce8:	00d5151b          	slliw	x10,x10,0xd
    80007cec:	0c2017b7          	lui	x15,0xc201
    80007cf0:	00a787b3          	add	x15,x15,x10
    80007cf4:	0007a023          	sw	x0,0(x15) # c201000 <_binary_fs_img_size+0xc00d000>
    80007cf8:	00813083          	ld	x1,8(x2)
    80007cfc:	00013403          	ld	x8,0(x2)
    80007d00:	01010113          	addi	x2,x2,16
    80007d04:	00008067          	jalr	x0,0(x1)

0000000080007d08 <plic_claim>:
    80007d08:	ff010113          	addi	x2,x2,-16
    80007d0c:	00113423          	sd	x1,8(x2)
    80007d10:	00813023          	sd	x8,0(x2)
    80007d14:	01010413          	addi	x8,x2,16
    80007d18:	8a9fa0ef          	jal	x1,800025c0 <cpuid>
    80007d1c:	00d5151b          	slliw	x10,x10,0xd
    80007d20:	0c2017b7          	lui	x15,0xc201
    80007d24:	00a787b3          	add	x15,x15,x10
    80007d28:	0047a503          	lw	x10,4(x15) # c201004 <_binary_fs_img_size+0xc00d004>
    80007d2c:	00813083          	ld	x1,8(x2)
    80007d30:	00013403          	ld	x8,0(x2)
    80007d34:	01010113          	addi	x2,x2,16
    80007d38:	00008067          	jalr	x0,0(x1)

0000000080007d3c <plic_complete>:
    80007d3c:	fe010113          	addi	x2,x2,-32
    80007d40:	00113c23          	sd	x1,24(x2)
    80007d44:	00813823          	sd	x8,16(x2)
    80007d48:	00913423          	sd	x9,8(x2)
    80007d4c:	02010413          	addi	x8,x2,32
    80007d50:	00050493          	addi	x9,x10,0
    80007d54:	86dfa0ef          	jal	x1,800025c0 <cpuid>
    80007d58:	00d5179b          	slliw	x15,x10,0xd
    80007d5c:	0c201737          	lui	x14,0xc201
    80007d60:	00f707b3          	add	x15,x14,x15
    80007d64:	0097a223          	sw	x9,4(x15)
    80007d68:	01813083          	ld	x1,24(x2)
    80007d6c:	01013403          	ld	x8,16(x2)
    80007d70:	00813483          	ld	x9,8(x2)
    80007d74:	02010113          	addi	x2,x2,32
    80007d78:	00008067          	jalr	x0,0(x1)

0000000080007d7c <virtio_disk_init>:
    80007d7c:	fd010113          	addi	x2,x2,-48
    80007d80:	02113423          	sd	x1,40(x2)
    80007d84:	02813023          	sd	x8,32(x2)
    80007d88:	00913c23          	sd	x9,24(x2)
    80007d8c:	01213823          	sd	x18,16(x2)
    80007d90:	01313423          	sd	x19,8(x2)
    80007d94:	03010413          	addi	x8,x2,48
    80007d98:	00002597          	auipc	x11,0x2
    80007d9c:	ab858593          	addi	x11,x11,-1352 # 80009850 <etext+0x850>
    80007da0:	0020f517          	auipc	x10,0x20f
    80007da4:	df850513          	addi	x10,x10,-520 # 80216b98 <ramdisk_lock>
    80007da8:	a04f90ef          	jal	x1,80000fac <initlock>
    80007dac:	001f6497          	auipc	x9,0x1f6
    80007db0:	bf448493          	addi	x9,x9,-1036 # 801fd9a0 <panicked>
    80007db4:	00002797          	auipc	x15,0x2
    80007db8:	bec78793          	addi	x15,x15,-1044 # 800099a0 <_binary_fs_img_start>
    80007dbc:	40f484b3          	sub	x9,x9,x15
    80007dc0:	00048993          	addi	x19,x9,0
    80007dc4:	001f47b7          	lui	x15,0x1f4
    80007dc8:	0097f463          	bgeu	x15,x9,80007dd0 <virtio_disk_init+0x54>
    80007dcc:	00078993          	addi	x19,x15,0 # 1f4000 <_binary_fs_img_size>
    80007dd0:	0009891b          	addiw	x18,x19,0
    80007dd4:	00090613          	addi	x12,x18,0
    80007dd8:	00002597          	auipc	x11,0x2
    80007ddc:	bc858593          	addi	x11,x11,-1080 # 800099a0 <_binary_fs_img_start>
    80007de0:	0020f517          	auipc	x10,0x20f
    80007de4:	dd050513          	addi	x10,x10,-560 # 80216bb0 <ramdisk>
    80007de8:	ce0f90ef          	jal	x1,800012c8 <memmove>
    80007dec:	001f47b7          	lui	x15,0x1f4
    80007df0:	02f4e063          	bltu	x9,x15,80007e10 <virtio_disk_init+0x94>
    80007df4:	02813083          	ld	x1,40(x2)
    80007df8:	02013403          	ld	x8,32(x2)
    80007dfc:	01813483          	ld	x9,24(x2)
    80007e00:	01013903          	ld	x18,16(x2)
    80007e04:	00813983          	ld	x19,8(x2)
    80007e08:	03010113          	addi	x2,x2,48
    80007e0c:	00008067          	jalr	x0,0(x1)
    80007e10:	001f4637          	lui	x12,0x1f4
    80007e14:	4126063b          	subw	x12,x12,x18
    80007e18:	00000593          	addi	x11,x0,0
    80007e1c:	0020f517          	auipc	x10,0x20f
    80007e20:	d9450513          	addi	x10,x10,-620 # 80216bb0 <ramdisk>
    80007e24:	01350533          	add	x10,x10,x19
    80007e28:	c04f90ef          	jal	x1,8000122c <memset>
    80007e2c:	fc9ff06f          	jal	x0,80007df4 <virtio_disk_init+0x78>

0000000080007e30 <virtio_disk_rw>:
    80007e30:	fe010113          	addi	x2,x2,-32
    80007e34:	00113c23          	sd	x1,24(x2)
    80007e38:	00813823          	sd	x8,16(x2)
    80007e3c:	00913423          	sd	x9,8(x2)
    80007e40:	01213023          	sd	x18,0(x2)
    80007e44:	02010413          	addi	x8,x2,32
    80007e48:	00c52703          	lw	x14,12(x10)
    80007e4c:	7cf00793          	addi	x15,x0,1999
    80007e50:	06e7e663          	bltu	x15,x14,80007ebc <virtio_disk_rw+0x8c>
    80007e54:	00050493          	addi	x9,x10,0
    80007e58:	00058913          	addi	x18,x11,0
    80007e5c:	0020f517          	auipc	x10,0x20f
    80007e60:	d3c50513          	addi	x10,x10,-708 # 80216b98 <ramdisk_lock>
    80007e64:	a2cf90ef          	jal	x1,80001090 <acquire>
    80007e68:	00c4e503          	lwu	x10,12(x9)
    80007e6c:	00a51513          	slli	x10,x10,0xa
    80007e70:	0020f797          	auipc	x15,0x20f
    80007e74:	d4078793          	addi	x15,x15,-704 # 80216bb0 <ramdisk>
    80007e78:	00f50533          	add	x10,x10,x15
    80007e7c:	04090663          	beq	x18,x0,80007ec8 <virtio_disk_rw+0x98>
    80007e80:	40000613          	addi	x12,x0,1024
    80007e84:	05848593          	addi	x11,x9,88
    80007e88:	c40f90ef          	jal	x1,800012c8 <memmove>
    80007e8c:	0020f517          	auipc	x10,0x20f
    80007e90:	d0c50513          	addi	x10,x10,-756 # 80216b98 <ramdisk_lock>
    80007e94:	ad4f90ef          	jal	x1,80001168 <release>
    80007e98:	00100793          	addi	x15,x0,1
    80007e9c:	00f4a023          	sw	x15,0(x9)
    80007ea0:	0004a223          	sw	x0,4(x9)
    80007ea4:	01813083          	ld	x1,24(x2)
    80007ea8:	01013403          	ld	x8,16(x2)
    80007eac:	00813483          	ld	x9,8(x2)
    80007eb0:	00013903          	ld	x18,0(x2)
    80007eb4:	02010113          	addi	x2,x2,32
    80007eb8:	00008067          	jalr	x0,0(x1)
    80007ebc:	00002517          	auipc	x10,0x2
    80007ec0:	99c50513          	addi	x10,x10,-1636 # 80009858 <etext+0x858>
    80007ec4:	c29f80ef          	jal	x1,80000aec <panic>
    80007ec8:	40000613          	addi	x12,x0,1024
    80007ecc:	00050593          	addi	x11,x10,0
    80007ed0:	05848513          	addi	x10,x9,88
    80007ed4:	bf4f90ef          	jal	x1,800012c8 <memmove>
    80007ed8:	fb5ff06f          	jal	x0,80007e8c <virtio_disk_rw+0x5c>

0000000080007edc <virtio_disk_intr>:
    80007edc:	ff010113          	addi	x2,x2,-16
    80007ee0:	00113423          	sd	x1,8(x2)
    80007ee4:	00813023          	sd	x8,0(x2)
    80007ee8:	01010413          	addi	x8,x2,16
    80007eec:	00813083          	ld	x1,8(x2)
    80007ef0:	00013403          	ld	x8,0(x2)
    80007ef4:	01010113          	addi	x2,x2,16
    80007ef8:	00008067          	jalr	x0,0(x1)
	...

0000000080008000 <_trampoline>:
    80008000:	14051073          	csrrw	x0,sscratch,x10
    80008004:	02000537          	lui	x10,0x2000
    80008008:	fff5051b          	addiw	x10,x10,-1 # 1ffffff <_binary_fs_img_size+0x1e0bfff>
    8000800c:	00d51513          	slli	x10,x10,0xd
    80008010:	02153423          	sd	x1,40(x10)
    80008014:	02253823          	sd	x2,48(x10)
    80008018:	02353c23          	sd	x3,56(x10)
    8000801c:	04453023          	sd	x4,64(x10)
    80008020:	04553423          	sd	x5,72(x10)
    80008024:	04653823          	sd	x6,80(x10)
    80008028:	04753c23          	sd	x7,88(x10)
    8000802c:	06853023          	sd	x8,96(x10)
    80008030:	06953423          	sd	x9,104(x10)
    80008034:	06b53c23          	sd	x11,120(x10)
    80008038:	08c53023          	sd	x12,128(x10)
    8000803c:	08d53423          	sd	x13,136(x10)
    80008040:	08e53823          	sd	x14,144(x10)
    80008044:	08f53c23          	sd	x15,152(x10)
    80008048:	0b053023          	sd	x16,160(x10)
    8000804c:	0b153423          	sd	x17,168(x10)
    80008050:	0b253823          	sd	x18,176(x10)
    80008054:	0b353c23          	sd	x19,184(x10)
    80008058:	0d453023          	sd	x20,192(x10)
    8000805c:	0d553423          	sd	x21,200(x10)
    80008060:	0d653823          	sd	x22,208(x10)
    80008064:	0d753c23          	sd	x23,216(x10)
    80008068:	0f853023          	sd	x24,224(x10)
    8000806c:	0f953423          	sd	x25,232(x10)
    80008070:	0fa53823          	sd	x26,240(x10)
    80008074:	0fb53c23          	sd	x27,248(x10)
    80008078:	11c53023          	sd	x28,256(x10)
    8000807c:	11d53423          	sd	x29,264(x10)
    80008080:	11e53823          	sd	x30,272(x10)
    80008084:	11f53c23          	sd	x31,280(x10)
    80008088:	140022f3          	csrrs	x5,sscratch,x0
    8000808c:	06553823          	sd	x5,112(x10)
    80008090:	00853103          	ld	x2,8(x10)
    80008094:	02053203          	ld	x4,32(x10)
    80008098:	01053283          	ld	x5,16(x10)
    8000809c:	00053303          	ld	x6,0(x10)
    800080a0:	12000073          	sfence.vma	x0,x0
    800080a4:	18031073          	csrrw	x0,satp,x6
    800080a8:	12000073          	sfence.vma	x0,x0
    800080ac:	000280e7          	jalr	x1,0(x5)

00000000800080b0 <userret>:
    800080b0:	12000073          	sfence.vma	x0,x0
    800080b4:	18051073          	csrrw	x0,satp,x10
    800080b8:	12000073          	sfence.vma	x0,x0
    800080bc:	02000537          	lui	x10,0x2000
    800080c0:	fff5051b          	addiw	x10,x10,-1 # 1ffffff <_binary_fs_img_size+0x1e0bfff>
    800080c4:	00d51513          	slli	x10,x10,0xd
    800080c8:	02853083          	ld	x1,40(x10)
    800080cc:	03053103          	ld	x2,48(x10)
    800080d0:	03853183          	ld	x3,56(x10)
    800080d4:	04053203          	ld	x4,64(x10)
    800080d8:	04853283          	ld	x5,72(x10)
    800080dc:	05053303          	ld	x6,80(x10)
    800080e0:	05853383          	ld	x7,88(x10)
    800080e4:	06053403          	ld	x8,96(x10)
    800080e8:	06853483          	ld	x9,104(x10)
    800080ec:	07853583          	ld	x11,120(x10)
    800080f0:	08053603          	ld	x12,128(x10)
    800080f4:	08853683          	ld	x13,136(x10)
    800080f8:	09053703          	ld	x14,144(x10)
    800080fc:	09853783          	ld	x15,152(x10)
    80008100:	0a053803          	ld	x16,160(x10)
    80008104:	0a853883          	ld	x17,168(x10)
    80008108:	0b053903          	ld	x18,176(x10)
    8000810c:	0b853983          	ld	x19,184(x10)
    80008110:	0c053a03          	ld	x20,192(x10)
    80008114:	0c853a83          	ld	x21,200(x10)
    80008118:	0d053b03          	ld	x22,208(x10)
    8000811c:	0d853b83          	ld	x23,216(x10)
    80008120:	0e053c03          	ld	x24,224(x10)
    80008124:	0e853c83          	ld	x25,232(x10)
    80008128:	0f053d03          	ld	x26,240(x10)
    8000812c:	0f853d83          	ld	x27,248(x10)
    80008130:	10053e03          	ld	x28,256(x10)
    80008134:	10853e83          	ld	x29,264(x10)
    80008138:	11053f03          	ld	x30,272(x10)
    8000813c:	11853f83          	ld	x31,280(x10)
    80008140:	07053503          	ld	x10,112(x10)
    80008144:	10200073          	sret
	...
