
hypervisor-p-2-stage_translation:     file format elf64-littleriscv


Disassembly of section .text.init:

0000000080000000 <_start>:
    80000000:	0500006f          	j	80000050 <reset_vector>

0000000080000004 <trap_vector>:
    80000004:	34202f73          	csrr	t5,mcause
    80000008:	00800f93          	li	t6,8
    8000000c:	03ff0863          	beq	t5,t6,8000003c <write_tohost>
    80000010:	00900f93          	li	t6,9
    80000014:	03ff0463          	beq	t5,t6,8000003c <write_tohost>
    80000018:	00b00f93          	li	t6,11
    8000001c:	03ff0063          	beq	t5,t6,8000003c <write_tohost>
    80000020:	00000f13          	li	t5,0
    80000024:	000f0463          	beqz	t5,8000002c <trap_vector+0x28>
    80000028:	000f0067          	jr	t5
    8000002c:	34202f73          	csrr	t5,mcause
    80000030:	000f5463          	bgez	t5,80000038 <handle_exception>
    80000034:	0040006f          	j	80000038 <handle_exception>

0000000080000038 <handle_exception>:
    80000038:	5391e193          	ori	gp,gp,1337

000000008000003c <write_tohost>:
    8000003c:	00001f17          	auipc	t5,0x1
    80000040:	fc3f2223          	sw	gp,-60(t5) # 80001000 <tohost>
    80000044:	00001f17          	auipc	t5,0x1
    80000048:	fc0f2023          	sw	zero,-64(t5) # 80001004 <tohost+0x4>
    8000004c:	ff1ff06f          	j	8000003c <write_tohost>

0000000080000050 <reset_vector>:
    80000050:	00000093          	li	ra,0
    80000054:	00000113          	li	sp,0
    80000058:	00000193          	li	gp,0
    8000005c:	00000213          	li	tp,0
    80000060:	00000293          	li	t0,0
    80000064:	00000313          	li	t1,0
    80000068:	00000393          	li	t2,0
    8000006c:	00000413          	li	s0,0
    80000070:	00000493          	li	s1,0
    80000074:	00000513          	li	a0,0
    80000078:	00000593          	li	a1,0
    8000007c:	00000613          	li	a2,0
    80000080:	00000693          	li	a3,0
    80000084:	00000713          	li	a4,0
    80000088:	00000793          	li	a5,0
    8000008c:	00000813          	li	a6,0
    80000090:	00000893          	li	a7,0
    80000094:	00000913          	li	s2,0
    80000098:	00000993          	li	s3,0
    8000009c:	00000a13          	li	s4,0
    800000a0:	00000a93          	li	s5,0
    800000a4:	00000b13          	li	s6,0
    800000a8:	00000b93          	li	s7,0
    800000ac:	00000c13          	li	s8,0
    800000b0:	00000c93          	li	s9,0
    800000b4:	00000d13          	li	s10,0
    800000b8:	00000d93          	li	s11,0
    800000bc:	00000e13          	li	t3,0
    800000c0:	00000e93          	li	t4,0
    800000c4:	00000f13          	li	t5,0
    800000c8:	00000f93          	li	t6,0
    800000cc:	f1402573          	csrr	a0,mhartid
    800000d0:	00051063          	bnez	a0,800000d0 <reset_vector+0x80>
    800000d4:	00000297          	auipc	t0,0x0
    800000d8:	01028293          	addi	t0,t0,16 # 800000e4 <reset_vector+0x94>
    800000dc:	30529073          	csrw	mtvec,t0
    800000e0:	74445073          	csrwi	mnstatus,8
    800000e4:	00000297          	auipc	t0,0x0
    800000e8:	01028293          	addi	t0,t0,16 # 800000f4 <reset_vector+0xa4>
    800000ec:	30529073          	csrw	mtvec,t0
    800000f0:	18005073          	csrwi	satp,0
    800000f4:	00000297          	auipc	t0,0x0
    800000f8:	02428293          	addi	t0,t0,36 # 80000118 <reset_vector+0xc8>
    800000fc:	30529073          	csrw	mtvec,t0
    80000100:	0010029b          	addiw	t0,zero,1
    80000104:	03529293          	slli	t0,t0,0x35
    80000108:	fff28293          	addi	t0,t0,-1
    8000010c:	3b029073          	csrw	pmpaddr0,t0
    80000110:	01f00293          	li	t0,31
    80000114:	3a029073          	csrw	pmpcfg0,t0
    80000118:	30405073          	csrwi	mie,0
    8000011c:	00000297          	auipc	t0,0x0
    80000120:	01428293          	addi	t0,t0,20 # 80000130 <reset_vector+0xe0>
    80000124:	30529073          	csrw	mtvec,t0
    80000128:	30205073          	csrwi	medeleg,0
    8000012c:	30305073          	csrwi	mideleg,0
    80000130:	00000193          	li	gp,0
    80000134:	00000297          	auipc	t0,0x0
    80000138:	ed028293          	addi	t0,t0,-304 # 80000004 <trap_vector>
    8000013c:	30529073          	csrw	mtvec,t0
    80000140:	00100513          	li	a0,1
    80000144:	01f51513          	slli	a0,a0,0x1f
    80000148:	00055c63          	bgez	a0,80000160 <reset_vector+0x110>
    8000014c:	0ff0000f          	fence
    80000150:	00100193          	li	gp,1
    80000154:	05d00893          	li	a7,93
    80000158:	00000513          	li	a0,0
    8000015c:	00000073          	ecall
    80000160:	00000293          	li	t0,0
    80000164:	00028a63          	beqz	t0,80000178 <reset_vector+0x128>
    80000168:	10529073          	csrw	stvec,t0
    8000016c:	0000b2b7          	lui	t0,0xb
    80000170:	1092829b          	addiw	t0,t0,265 # b109 <_start-0x7fff4ef7>
    80000174:	30229073          	csrw	medeleg,t0
    80000178:	30005073          	csrwi	mstatus,0
    8000017c:	00002537          	lui	a0,0x2
    80000180:	8005051b          	addiw	a0,a0,-2048 # 1800 <_start-0x7fffe800>
    80000184:	30052073          	csrs	mstatus,a0
    80000188:	00000297          	auipc	t0,0x0
    8000018c:	01428293          	addi	t0,t0,20 # 8000019c <reset_vector+0x14c>
    80000190:	34129073          	csrw	mepc,t0
    80000194:	f1402573          	csrr	a0,mhartid
    80000198:	30200073          	mret
    8000019c:	00200193          	li	gp,2

00000000800001a0 <vs_pt_init>:
    800001a0:	000012b7          	lui	t0,0x1
    800001a4:	0022d293          	srli	t0,t0,0x2
    800001a8:	0012e293          	ori	t0,t0,1
    800001ac:	00004317          	auipc	t1,0x4
    800001b0:	e4533a23          	sd	t0,-428(t1) # 80004000 <begin_signature>
    800001b4:	000022b7          	lui	t0,0x2
    800001b8:	0022d293          	srli	t0,t0,0x2
    800001bc:	0012e293          	ori	t0,t0,1
    800001c0:	00005317          	auipc	t1,0x5
    800001c4:	e4533023          	sd	t0,-448(t1) # 80005000 <vspt_1>
    800001c8:	002002b7          	lui	t0,0x200
    800001cc:	0022d293          	srli	t0,t0,0x2
    800001d0:	0cf2e293          	ori	t0,t0,207
    800001d4:	00006317          	auipc	t1,0x6
    800001d8:	e2533623          	sd	t0,-468(t1) # 80006000 <vspt_2>

00000000800001dc <init_vsatp>:
    800001dc:	fff0051b          	addiw	a0,zero,-1
    800001e0:	03f51513          	slli	a0,a0,0x3f
    800001e4:	0000059b          	sext.w	a1,zero
    800001e8:	00c5d593          	srli	a1,a1,0xc
    800001ec:	00a5e5b3          	or	a1,a1,a0
    800001f0:	28059073          	csrw	vsatp,a1
    800001f4:	22000073          	hfence.vvma

00000000800001f8 <guest_pt_init>:
    800001f8:	0000c297          	auipc	t0,0xc
    800001fc:	e0828293          	addi	t0,t0,-504 # 8000c000 <gpt_1>
    80000200:	0022d293          	srli	t0,t0,0x2
    80000204:	0012e293          	ori	t0,t0,1
    80000208:	00008317          	auipc	t1,0x8
    8000020c:	de533c23          	sd	t0,-520(t1) # 80008000 <gpt_0>
    80000210:	0000d297          	auipc	t0,0xd
    80000214:	df028293          	addi	t0,t0,-528 # 8000d000 <gpt_2>
    80000218:	0022d293          	srli	t0,t0,0x2
    8000021c:	0012e293          	ori	t0,t0,1
    80000220:	0000c317          	auipc	t1,0xc
    80000224:	de533023          	sd	t0,-544(t1) # 8000c000 <gpt_1>
    80000228:	0000e297          	auipc	t0,0xe
    8000022c:	dd828293          	addi	t0,t0,-552 # 8000e000 <gpt_3>
    80000230:	0022d293          	srli	t0,t0,0x2
    80000234:	0012e293          	ori	t0,t0,1
    80000238:	0000c317          	auipc	t1,0xc
    8000023c:	dc533823          	sd	t0,-560(t1) # 8000c008 <gpt_1+0x8>
    80000240:	00004297          	auipc	t0,0x4
    80000244:	dc028293          	addi	t0,t0,-576 # 80004000 <begin_signature>
    80000248:	0022d293          	srli	t0,t0,0x2
    8000024c:	0d72e293          	ori	t0,t0,215
    80000250:	0000d317          	auipc	t1,0xd
    80000254:	da533823          	sd	t0,-592(t1) # 8000d000 <gpt_2>
    80000258:	00005297          	auipc	t0,0x5
    8000025c:	da828293          	addi	t0,t0,-600 # 80005000 <vspt_1>
    80000260:	0022d293          	srli	t0,t0,0x2
    80000264:	0d72e293          	ori	t0,t0,215
    80000268:	0000d317          	auipc	t1,0xd
    8000026c:	da533023          	sd	t0,-608(t1) # 8000d008 <gpt_2+0x8>
    80000270:	00006297          	auipc	t0,0x6
    80000274:	d9028293          	addi	t0,t0,-624 # 80006000 <vspt_2>
    80000278:	0022d293          	srli	t0,t0,0x2
    8000027c:	0d72e293          	ori	t0,t0,215
    80000280:	0000d317          	auipc	t1,0xd
    80000284:	d8533823          	sd	t0,-624(t1) # 8000d010 <gpt_2+0x10>
    80000288:	0000f297          	auipc	t0,0xf
    8000028c:	d7828293          	addi	t0,t0,-648 # 8000f000 <data_page>
    80000290:	0022d293          	srli	t0,t0,0x2
    80000294:	0d72e293          	ori	t0,t0,215
    80000298:	0000e317          	auipc	t1,0xe
    8000029c:	d6533423          	sd	t0,-664(t1) # 8000e000 <gpt_3>

00000000800002a0 <init_hgatp>:
    800002a0:	fff0051b          	addiw	a0,zero,-1
    800002a4:	03f51513          	slli	a0,a0,0x3f
    800002a8:	00008597          	auipc	a1,0x8
    800002ac:	d5858593          	addi	a1,a1,-680 # 80008000 <gpt_0>
    800002b0:	00c5d593          	srli	a1,a1,0xc
    800002b4:	00a5e5b3          	or	a1,a1,a0
    800002b8:	68059073          	csrw	hgatp,a1
    800002bc:	62000073          	hfence.gvma

00000000800002c0 <hstatus_init>:
    800002c0:	10000513          	li	a0,256
    800002c4:	60052073          	csrs	hstatus,a0
    800002c8:	0000f517          	auipc	a0,0xf
    800002cc:	d3850513          	addi	a0,a0,-712 # 8000f000 <data_page>
    800002d0:	123455b7          	lui	a1,0x12345
    800002d4:	6785859b          	addiw	a1,a1,1656 # 12345678 <_start-0x6dcba988>
    800002d8:	00b52023          	sw	a1,0(a0)
    800002dc:	00000293          	li	t0,0
    800002e0:	6802c3f3          	hlv.w	t2,(t0)
    800002e4:	6a72c073          	hsv.w	t2,(t0)
    800002e8:	00b39e63          	bne	t2,a1,80000304 <fail>
    800002ec:	0ff0000f          	fence
    800002f0:	00100193          	li	gp,1
    800002f4:	05d00893          	li	a7,93
    800002f8:	00000513          	li	a0,0
    800002fc:	00000073          	ecall
    80000300:	02301063          	bne	zero,gp,80000320 <pass>

0000000080000304 <fail>:
    80000304:	0ff0000f          	fence
    80000308:	00018063          	beqz	gp,80000308 <fail+0x4>
    8000030c:	00119193          	slli	gp,gp,0x1
    80000310:	0011e193          	ori	gp,gp,1
    80000314:	05d00893          	li	a7,93
    80000318:	00018513          	mv	a0,gp
    8000031c:	00000073          	ecall

0000000080000320 <pass>:
    80000320:	0ff0000f          	fence
    80000324:	00100193          	li	gp,1
    80000328:	05d00893          	li	a7,93
    8000032c:	00000513          	li	a0,0
    80000330:	00000073          	ecall
    80000334:	c0001073          	unimp
    80000338:	00000013          	nop
